ccopy_reg
_reconstructor
p1
(cmatplotlib.font_manager
FontManager
p2
c__builtin__
object
p3
NtRp4
(dp5
S'ttflist'
p6
(lp7
g1
(cmatplotlib.font_manager
FontEntry
p8
g3
NtRp9
(dp10
S'style'
p11
Vnormal
p12
sS'name'
p13
Vcmb10
p14
sS'weight'
p15
I400
sS'stretch'
p16
g12
sS'variant'
p17
g12
sS'fname'
p18
V/usr/share/matplotlib/mpl-data/fonts/ttf/cmb10.ttf
p19
sS'size'
p20
Vscalable
p21
sbag1
(g8
g3
NtRp22
(dp23
g11
g12
sg13
Vcmex10
p24
sg15
I400
sg16
g12
sg17
g12
sg18
V/usr/share/matplotlib/mpl-data/fonts/ttf/cmex10.ttf
p25
sg20
g21
sbag1
(g8
g3
NtRp26
(dp27
g11
Vitalic
p28
sg13
VSTIXNonUnicode
p29
sg15
I400
sg16
g12
sg17
g12
sg18
V/usr/share/matplotlib/mpl-data/fonts/ttf/STIXNonUniIta.ttf
p30
sg20
g21
sbag1
(g8
g3
NtRp31
(dp32
g11
g12
sg13
VSTIXSizeOneSym
p33
sg15
I400
sg16
g12
sg17
g12
sg18
V/usr/share/matplotlib/mpl-data/fonts/ttf/STIXSizOneSymReg.ttf
p34
sg20
g21
sbag1
(g8
g3
NtRp35
(dp36
g11
g12
sg13
VSTIXSizeThreeSym
p37
sg15
I400
sg16
g12
sg17
g12
sg18
V/usr/share/matplotlib/mpl-data/fonts/ttf/STIXSizThreeSymReg.ttf
p38
sg20
g21
sbag1
(g8
g3
NtRp39
(dp40
g11
g12
sg13
VSTIXSizeTwoSym
p41
sg15
I700
sg16
g12
sg17
g12
sg18
V/usr/share/matplotlib/mpl-data/fonts/ttf/STIXSizTwoSymBol.ttf
p42
sg20
g21
sbag1
(g8
g3
NtRp43
(dp44
g11
g12
sg13
Vcmtt10
p45
sg15
I400
sg16
g12
sg17
g12
sg18
V/usr/share/matplotlib/mpl-data/fonts/ttf/cmtt10.ttf
p46
sg20
g21
sbag1
(g8
g3
NtRp47
(dp48
g11
g12
sg13
VSTIXGeneral
p49
sg15
I400
sg16
g12
sg17
g12
sg18
V/usr/share/matplotlib/mpl-data/fonts/ttf/STIXGeneral.ttf
p50
sg20
g21
sbag1
(g8
g3
NtRp51
(dp52
g11
g12
sg13
VSTIXSizeThreeSym
p53
sg15
I700
sg16
g12
sg17
g12
sg18
V/usr/share/matplotlib/mpl-data/fonts/ttf/STIXSizThreeSymBol.ttf
p54
sg20
g21
sbag1
(g8
g3
NtRp55
(dp56
g11
g12
sg13
VSTIXNonUnicode
p57
sg15
I400
sg16
g12
sg17
g12
sg18
V/usr/share/matplotlib/mpl-data/fonts/ttf/STIXNonUni.ttf
p58
sg20
g21
sbag1
(g8
g3
NtRp59
(dp60
g11
g12
sg13
VSTIXSizeFiveSym
p61
sg15
I400
sg16
g12
sg17
g12
sg18
V/usr/share/matplotlib/mpl-data/fonts/ttf/STIXSizFiveSymReg.ttf
p62
sg20
g21
sbag1
(g8
g3
NtRp63
(dp64
g11
g12
sg13
VSTIXSizeOneSym
p65
sg15
I700
sg16
g12
sg17
g12
sg18
V/usr/share/matplotlib/mpl-data/fonts/ttf/STIXSizOneSymBol.ttf
p66
sg20
g21
sbag1
(g8
g3
NtRp67
(dp68
g11
g12
sg13
VSTIXGeneral
p69
sg15
I700
sg16
g12
sg17
g12
sg18
V/usr/share/matplotlib/mpl-data/fonts/ttf/STIXGeneralBol.ttf
p70
sg20
g21
sbag1
(g8
g3
NtRp71
(dp72
g11
g12
sg13
Vcmr10
p73
sg15
I400
sg16
g12
sg17
g12
sg18
V/usr/share/matplotlib/mpl-data/fonts/ttf/cmr10.ttf
p74
sg20
g21
sbag1
(g8
g3
NtRp75
(dp76
g11
g12
sg13
VSTIXSizeTwoSym
p77
sg15
I400
sg16
g12
sg17
g12
sg18
V/usr/share/matplotlib/mpl-data/fonts/ttf/STIXSizTwoSymReg.ttf
p78
sg20
g21
sbag1
(g8
g3
NtRp79
(dp80
g11
g12
sg13
VSTIXSizeFourSym
p81
sg15
I400
sg16
g12
sg17
g12
sg18
V/usr/share/matplotlib/mpl-data/fonts/ttf/STIXSizFourSymReg.ttf
p82
sg20
g21
sbag1
(g8
g3
NtRp83
(dp84
g11
g12
sg13
Vcmsy10
p85
sg15
I400
sg16
g12
sg17
g12
sg18
V/usr/share/matplotlib/mpl-data/fonts/ttf/cmsy10.ttf
p86
sg20
g21
sbag1
(g8
g3
NtRp87
(dp88
g11
g28
sg13
VSTIXNonUnicode
p89
sg15
I700
sg16
g12
sg17
g12
sg18
V/usr/share/matplotlib/mpl-data/fonts/ttf/STIXNonUniBolIta.ttf
p90
sg20
g21
sbag1
(g8
g3
NtRp91
(dp92
g11
g12
sg13
Vcmss10
p93
sg15
I400
sg16
g12
sg17
g12
sg18
V/usr/share/matplotlib/mpl-data/fonts/ttf/cmss10.ttf
p94
sg20
g21
sbag1
(g8
g3
NtRp95
(dp96
g11
g12
sg13
VSTIXSizeFourSym
p97
sg15
I700
sg16
g12
sg17
g12
sg18
V/usr/share/matplotlib/mpl-data/fonts/ttf/STIXSizFourSymBol.ttf
p98
sg20
g21
sbag1
(g8
g3
NtRp99
(dp100
g11
g28
sg13
VSTIXGeneral
p101
sg15
I400
sg16
g12
sg17
g12
sg18
V/usr/share/matplotlib/mpl-data/fonts/ttf/STIXGeneralItalic.ttf
p102
sg20
g21
sbag1
(g8
g3
NtRp103
(dp104
g11
g12
sg13
Vcmmi10
p105
sg15
I400
sg16
g12
sg17
g12
sg18
V/usr/share/matplotlib/mpl-data/fonts/ttf/cmmi10.ttf
p106
sg20
g21
sbag1
(g8
g3
NtRp107
(dp108
g11
g12
sg13
VSTIXNonUnicode
p109
sg15
I700
sg16
g12
sg17
g12
sg18
V/usr/share/matplotlib/mpl-data/fonts/ttf/STIXNonUniBol.ttf
p110
sg20
g21
sbag1
(g8
g3
NtRp111
(dp112
g11
g28
sg13
VSTIXGeneral
p113
sg15
I700
sg16
g12
sg17
g12
sg18
V/usr/share/matplotlib/mpl-data/fonts/ttf/STIXGeneralBolIta.ttf
p114
sg20
g21
sbag1
(g8
g3
NtRp115
(dp116
g11
g12
sg13
VLato
p117
sg15
I400
sg16
g12
sg17
g12
sg18
V/usr/share/fonts/truetype/lato/Lato-Hairline.ttf
p118
sg20
g21
sbag1
(g8
g3
NtRp119
(dp120
g11
g12
sg13
VSTIXIntegralsUp
p121
sg15
I400
sg16
g12
sg17
g12
sg18
V/usr/share/fonts/opentype/stix/STIXIntegralsUp-Regular.otf
p122
sg20
g21
sbag1
(g8
g3
NtRp123
(dp124
g11
g12
sg13
VKacstTitle
p125
sg15
I400
sg16
g12
sg17
g12
sg18
V/usr/share/fonts/truetype/kacst/KacstTitle.ttf
p126
sg20
g21
sbag1
(g8
g3
NtRp127
(dp128
g11
g28
sg13
VLatin Modern Roman
p129
sg15
I500
sg16
g12
sg17
g12
sg18
V/usr/share/texmf/fonts/opentype/public/lm/lmroman8-italic.otf
p130
sg20
g21
sbag1
(g8
g3
NtRp131
(dp132
g11
g28
sg13
VLaksaman
p133
sg15
I700
sg16
g12
sg17
g12
sg18
V/usr/share/fonts/truetype/tlwg/Laksaman-BoldItalic.ttf
p134
sg20
g21
sbag1
(g8
g3
NtRp135
(dp136
g11
g12
sg13
VLatin Modern Mono Caps
p137
sg15
I400
sg16
g12
sg17
g12
sg18
V/usr/share/texmf/fonts/opentype/public/lm/lmmonocaps10-regular.otf
p138
sg20
g21
sbag1
(g8
g3
NtRp139
(dp140
g11
g12
sg13
VKacstScreen
p141
sg15
I400
sg16
g12
sg17
g12
sg18
V/usr/share/fonts/truetype/kacst/KacstScreen.ttf
p142
sg20
g21
sbag1
(g8
g3
NtRp143
(dp144
g11
Voblique
p145
sg13
VLoma
p146
sg15
I400
sg16
g12
sg17
g12
sg18
V/usr/share/fonts/truetype/tlwg/Loma-Oblique.ttf
p147
sg20
g21
sbag1
(g8
g3
NtRp148
(dp149
g11
g145
sg13
VNorasi
p150
sg15
I400
sg16
g12
sg17
g12
sg18
V/usr/share/fonts/truetype/tlwg/Norasi-Oblique.ttf
p151
sg20
g21
sbag1
(g8
g3
NtRp152
(dp153
g11
g28
sg13
VLatin Modern Roman
p154
sg15
I500
sg16
g12
sg17
g12
sg18
V/usr/share/texmf/fonts/opentype/public/lm/lmroman10-italic.otf
p155
sg20
g21
sbag1
(g8
g3
NtRp156
(dp157
g11
g12
sg13
VTakaoPGothic
p158
sg15
I400
sg16
g12
sg17
g12
sg18
V/usr/share/fonts/truetype/fonts-japanese-gothic.ttf
p159
sg20
g21
sbag1
(g8
g3
NtRp160
(dp161
g11
g12
sg13
VLiberation Serif
p162
sg15
I400
sg16
g12
sg17
g12
sg18
V/usr/share/fonts/truetype/ttf-liberation/LiberationSerif-Regular.ttf
p163
sg20
g21
sbag1
(g8
g3
NtRp164
(dp165
g11
g12
sg13
VDejaVu Serif
p166
sg15
I400
sg16
g12
sg17
g12
sg18
V/usr/share/fonts/truetype/dejavu/DejaVuSerif.ttf
p167
sg20
g21
sbag1
(g8
g3
NtRp168
(dp169
g11
g145
sg13
VWaree
p170
sg15
I400
sg16
g12
sg17
g12
sg18
V/usr/share/fonts/truetype/tlwg/Waree-Oblique.ttf
p171
sg20
g21
sbag1
(g8
g3
NtRp172
(dp173
g11
g28
sg13
VTeX Gyre Termes
p174
sg15
I700
sg16
g12
sg17
g12
sg18
V/usr/share/texmf/fonts/opentype/public/tex-gyre/texgyretermes-bolditalic.otf
p175
sg20
g21
sbag1
(g8
g3
NtRp176
(dp177
g11
g12
sg13
VLatin Modern Mono
p178
sg15
I400
sg16
g12
sg17
g12
sg18
V/usr/share/texmf/fonts/opentype/public/lm/lmmono10-regular.otf
p179
sg20
g21
sbag1
(g8
g3
NtRp180
(dp181
g11
g28
sg13
VLato
p182
sg15
I500
sg16
g12
sg17
g12
sg18
V/usr/share/fonts/truetype/lato/Lato-MediumItalic.ttf
p183
sg20
g21
sbag1
(g8
g3
NtRp184
(dp185
g11
g12
sg13
VBitstream Vera Sans Mono
p186
sg15
I700
sg16
g12
sg17
g12
sg18
V/usr/share/fonts/truetype/ttf-bitstream-vera/VeraMoBd.ttf
p187
sg20
g21
sbag1
(g8
g3
NtRp188
(dp189
g11
g12
sg13
VTeX Gyre Schola Math
p190
sg15
I400
sg16
g12
sg17
g12
sg18
V/usr/share/texmf/fonts/opentype/public/tex-gyre-math/texgyreschola-math.otf
p191
sg20
g21
sbag1
(g8
g3
NtRp192
(dp193
g11
g12
sg13
VLaksaman
p194
sg15
I400
sg16
g12
sg17
g12
sg18
V/usr/share/fonts/truetype/tlwg/Laksaman.ttf
p195
sg20
g21
sbag1
(g8
g3
NtRp196
(dp197
g11
g12
sg13
VDejaVu Serif
p198
sg15
I700
sg16
Vcondensed
p199
sg17
g12
sg18
V/usr/share/fonts/truetype/dejavu/DejaVuSerifCondensed-Bold.ttf
p200
sg20
g21
sbag1
(g8
g3
NtRp201
(dp202
g11
g12
sg13
VSTIXSizeFourSym
p203
sg15
I700
sg16
g12
sg17
g12
sg18
V/usr/share/fonts/opentype/stix/STIXSizeFourSym-Bold.otf
p204
sg20
g21
sbag1
(g8
g3
NtRp205
(dp206
g11
g12
sg13
VLato
p207
sg15
I500
sg16
g12
sg17
g12
sg18
V/usr/share/fonts/truetype/lato/Lato-Medium.ttf
p208
sg20
g21
sbag1
(g8
g3
NtRp209
(dp210
g11
g12
sg13
VLatin Modern Roman
p211
sg15
I400
sg16
g12
sg17
g12
sg18
V/usr/share/texmf/fonts/opentype/public/lm/lmroman12-regular.otf
p212
sg20
g21
sbag1
(g8
g3
NtRp213
(dp214
g11
g12
sg13
VTlwg Typist
p215
sg15
I400
sg16
g12
sg17
g12
sg18
V/usr/share/fonts/truetype/tlwg/TlwgTypist.ttf
p216
sg20
g21
sbag1
(g8
g3
NtRp217
(dp218
g11
g12
sg13
VNanumGothic
p219
sg15
I400
sg16
g12
sg17
g12
sg18
V/usr/share/fonts/truetype/nanum/NanumGothic.ttf
p220
sg20
g21
sbag1
(g8
g3
NtRp221
(dp222
g11
g28
sg13
VLiberation Sans
p223
sg15
I400
sg16
g12
sg17
g12
sg18
V/usr/share/fonts/truetype/liberation/LiberationSans-Italic.ttf
p224
sg20
g21
sbag1
(g8
g3
NtRp225
(dp226
g11
g145
sg13
VDejaVu Sans Mono
p227
sg15
I400
sg16
g12
sg17
g12
sg18
V/usr/share/fonts/truetype/dejavu/DejaVuSansMono-Oblique.ttf
p228
sg20
g21
sbag1
(g8
g3
NtRp229
(dp230
g11
g12
sg13
VSTIXIntegralsUp
p231
sg15
I700
sg16
g12
sg17
g12
sg18
V/usr/share/fonts/opentype/stix/STIXIntegralsUp-Bold.otf
p232
sg20
g21
sbag1
(g8
g3
NtRp233
(dp234
g11
g12
sg13
VLatin Modern Roman
p235
sg15
I700
sg16
g12
sg17
g12
sg18
V/usr/share/texmf/fonts/opentype/public/lm/lmroman12-bold.otf
p236
sg20
g21
sbag1
(g8
g3
NtRp237
(dp238
g11
g12
sg13
VTeX Gyre Cursor
p239
sg15
I400
sg16
g12
sg17
g12
sg18
V/usr/share/texmf/fonts/opentype/public/tex-gyre/texgyrecursor-regular.otf
p240
sg20
g21
sbag1
(g8
g3
NtRp241
(dp242
g11
g12
sg13
VSawasdee
p243
sg15
I700
sg16
g12
sg17
g12
sg18
V/usr/share/fonts/truetype/tlwg/Sawasdee-Bold.ttf
p244
sg20
g21
sbag1
(g8
g3
NtRp245
(dp246
g11
g28
sg13
VDejaVu Serif
p247
sg15
I700
sg16
g12
sg17
g12
sg18
V/usr/share/fonts/truetype/dejavu/DejaVuSerif-BoldItalic.ttf
p248
sg20
g21
sbag1
(g8
g3
NtRp249
(dp250
g11
g12
sg13
VUbuntu Mono
p251
sg15
I400
sg16
g12
sg17
g12
sg18
V/usr/share/fonts/truetype/ubuntu-font-family/UbuntuMono-R.ttf
p252
sg20
g21
sbag1
(g8
g3
NtRp253
(dp254
g11
g12
sg13
VLiberation Serif
p255
sg15
I700
sg16
g12
sg17
g12
sg18
V/usr/share/fonts/truetype/ttf-liberation/LiberationSerif-Bold.ttf
p256
sg20
g21
sbag1
(g8
g3
NtRp257
(dp258
g11
g12
sg13
VLatin Modern Roman
p259
sg15
I400
sg16
g12
sg17
g12
sg18
V/usr/share/texmf/fonts/opentype/public/lm/lmroman5-regular.otf
p260
sg20
g21
sbag1
(g8
g3
NtRp261
(dp262
g11
g12
sg13
VLatin Modern Roman Slanted
p263
sg15
I400
sg16
g12
sg17
g12
sg18
V/usr/share/texmf/fonts/opentype/public/lm/lmromanslant12-regular.otf
p264
sg20
g21
sbag1
(g8
g3
NtRp265
(dp266
g11
g28
sg13
VLatin Modern Mono
p267
sg15
I400
sg16
g12
sg17
g12
sg18
V/usr/share/texmf/fonts/opentype/public/lm/lmmono10-italic.otf
p268
sg20
g21
sbag1
(g8
g3
NtRp269
(dp270
g11
g12
sg13
VKacstNaskh
p271
sg15
I400
sg16
g12
sg17
g12
sg18
V/usr/share/fonts/truetype/kacst/KacstNaskh.ttf
p272
sg20
g21
sbag1
(g8
g3
NtRp273
(dp274
g11
g28
sg13
VKinnari
p275
sg15
I700
sg16
g12
sg17
g12
sg18
V/usr/share/fonts/truetype/tlwg/Kinnari-BoldItalic.ttf
p276
sg20
g21
sbag1
(g8
g3
NtRp277
(dp278
g11
g145
sg13
VBitstream Vera Sans
p279
sg15
I400
sg16
g12
sg17
g12
sg18
V/usr/share/fonts/truetype/ttf-bitstream-vera/VeraIt.ttf
p280
sg20
g21
sbag1
(g8
g3
NtRp281
(dp282
g11
g12
sg13
VSawasdee
p283
sg15
I400
sg16
g12
sg17
g12
sg18
V/usr/share/fonts/truetype/tlwg/Sawasdee.ttf
p284
sg20
g21
sbag1
(g8
g3
NtRp285
(dp286
g11
g12
sg13
VSTIXSizeThreeSym
p287
sg15
I400
sg16
g12
sg17
g12
sg18
V/usr/share/fonts/opentype/stix/STIXSizeThreeSym-Regular.otf
p288
sg20
g21
sbag1
(g8
g3
NtRp289
(dp290
g11
g145
sg13
VDejaVu Sans Mono
p291
sg15
I700
sg16
g12
sg17
g12
sg18
V/usr/share/fonts/truetype/dejavu/DejaVuSansMono-BoldOblique.ttf
p292
sg20
g21
sbag1
(g8
g3
NtRp293
(dp294
g11
g12
sg13
VFreeSans
p295
sg15
I700
sg16
g12
sg17
g12
sg18
V/usr/share/fonts/truetype/freefont/FreeSansBold.ttf
p296
sg20
g21
sbag1
(g8
g3
NtRp297
(dp298
g11
g12
sg13
VTeX Gyre Heros Cn
p299
sg15
I400
sg16
g12
sg17
g12
sg18
V/usr/share/texmf/fonts/opentype/public/tex-gyre/texgyreheroscn-regular.otf
p300
sg20
g21
sbag1
(g8
g3
NtRp301
(dp302
g11
g12
sg13
VLatin Modern Mono
p303
sg15
I400
sg16
g12
sg17
g12
sg18
V/usr/share/texmf/fonts/opentype/public/lm/lmmono8-regular.otf
p304
sg20
g21
sbag1
(g8
g3
NtRp305
(dp306
g11
g12
sg13
VPurisa
p307
sg15
I700
sg16
g12
sg17
g12
sg18
V/usr/share/fonts/truetype/tlwg/Purisa-Bold.ttf
p308
sg20
g21
sbag1
(g8
g3
NtRp309
(dp310
g11
g12
sg13
VTlwg Typist
p311
sg15
I700
sg16
g12
sg17
g12
sg18
V/usr/share/fonts/truetype/tlwg/TlwgTypist-Bold.ttf
p312
sg20
g21
sbag1
(g8
g3
NtRp313
(dp314
g11
g145
sg13
VLatin Modern Mono Prop
p315
sg15
I400
sg16
g12
sg17
g12
sg18
V/usr/share/texmf/fonts/opentype/public/lm/lmmonoprop10-oblique.otf
p316
sg20
g21
sbag1
(g8
g3
NtRp317
(dp318
g11
g12
sg13
VKacstPoster
p319
sg15
I400
sg16
g12
sg17
g12
sg18
V/usr/share/fonts/truetype/kacst/KacstPoster.ttf
p320
sg20
g21
sbag1
(g8
g3
NtRp321
(dp322
g11
g12
sg13
VPurisa
p323
sg15
I400
sg16
g12
sg17
g12
sg18
V/usr/share/fonts/truetype/tlwg/Purisa.ttf
p324
sg20
g21
sbag1
(g8
g3
NtRp325
(dp326
g11
g12
sg13
VSTIXSizeOneSym
p327
sg15
I700
sg16
g12
sg17
g12
sg18
V/usr/share/fonts/opentype/stix/STIXSizeOneSym-Bold.otf
p328
sg20
g21
sbag1
(g8
g3
NtRp329
(dp330
g11
g28
sg13
VUbuntu
p331
sg15
I200
sg16
g12
sg17
g12
sg18
V/usr/share/fonts/truetype/ubuntu-font-family/Ubuntu-LI.ttf
p332
sg20
g21
sbag1
(g8
g3
NtRp333
(dp334
g11
g145
sg13
VUmpush
p335
sg15
I400
sg16
g12
sg17
g12
sg18
V/usr/share/fonts/truetype/tlwg/Umpush-Oblique.ttf
p336
sg20
g21
sbag1
(g8
g3
NtRp337
(dp338
g11
g12
sg13
VNanumGothic
p339
sg15
I700
sg16
g12
sg17
g12
sg18
V/usr/share/fonts/truetype/nanum/NanumGothicBold.ttf
p340
sg20
g21
sbag1
(g8
g3
NtRp341
(dp342
g11
g28
sg13
VLiberation Mono
p343
sg15
I700
sg16
g12
sg17
g12
sg18
V/usr/share/fonts/truetype/liberation/LiberationMono-BoldItalic.ttf
p344
sg20
g21
sbag1
(g8
g3
NtRp345
(dp346
g11
g12
sg13
VUbuntu Condensed
p347
sg15
I400
sg16
g199
sg17
g12
sg18
V/usr/share/fonts/truetype/ubuntu-font-family/Ubuntu-C.ttf
p348
sg20
g21
sbag1
(g8
g3
NtRp349
(dp350
g11
g12
sg13
VTeX Gyre Bonum
p351
sg15
I700
sg16
g12
sg17
g12
sg18
V/usr/share/texmf/fonts/opentype/public/tex-gyre/texgyrebonum-bold.otf
p352
sg20
g21
sbag1
(g8
g3
NtRp353
(dp354
g11
g28
sg13
VNorasi
p355
sg15
I400
sg16
g12
sg17
g12
sg18
V/usr/share/fonts/truetype/tlwg/Norasi-Italic.ttf
p356
sg20
g21
sbag1
(g8
g3
NtRp357
(dp358
g11
g12
sg13
VKhmer OS System
p359
sg15
I400
sg16
g12
sg17
g12
sg18
V/usr/share/fonts/truetype/ttf-khmeros-core/KhmerOSsys.ttf
p360
sg20
g21
sbag1
(g8
g3
NtRp361
(dp362
g11
g12
sg13
VLatin Modern Mono Prop Light
p363
sg15
I700
sg16
g12
sg17
g12
sg18
V/usr/share/texmf/fonts/opentype/public/lm/lmmonoproplt10-bold.otf
p364
sg20
g21
sbag1
(g8
g3
NtRp365
(dp366
g11
g12
sg13
VNorasi
p367
sg15
I400
sg16
g12
sg17
g12
sg18
V/usr/share/fonts/truetype/tlwg/Norasi.ttf
p368
sg20
g21
sbag1
(g8
g3
NtRp369
(dp370
g11
g28
sg13
VLatin Modern Roman
p371
sg15
I500
sg16
g12
sg17
g12
sg18
V/usr/share/texmf/fonts/opentype/public/lm/lmroman12-italic.otf
p372
sg20
g21
sbag1
(g8
g3
NtRp373
(dp374
g11
g12
sg13
VTeX Gyre Bonum Math
p375
sg15
I400
sg16
g12
sg17
g12
sg18
V/usr/share/texmf/fonts/opentype/public/tex-gyre-math/texgyrebonum-math.otf
p376
sg20
g21
sbag1
(g8
g3
NtRp377
(dp378
g11
g12
sg13
VLatin Modern Sans
p379
sg15
I400
sg16
g12
sg17
g12
sg18
V/usr/share/texmf/fonts/opentype/public/lm/lmsans12-regular.otf
p380
sg20
g21
sbag1
(g8
g3
NtRp381
(dp382
g11
g12
sg13
VFreeSerif
p383
sg15
I700
sg16
g12
sg17
g12
sg18
V/usr/share/fonts/truetype/freefont/FreeSerifBold.ttf
p384
sg20
g21
sbag1
(g8
g3
NtRp385
(dp386
g11
g28
sg13
VUbuntu
p387
sg15
I400
sg16
g12
sg17
g12
sg18
V/usr/share/fonts/truetype/ubuntu-font-family/Ubuntu-RI.ttf
p388
sg20
g21
sbag1
(g8
g3
NtRp389
(dp390
g11
g12
sg13
VNanumBarunGothic
p391
sg15
I400
sg16
g12
sg17
g12
sg18
V/usr/share/fonts/truetype/nanum/NanumBarunGothic.ttf
p392
sg20
g21
sbag1
(g8
g3
NtRp393
(dp394
g11
g28
sg13
VLatin Modern Roman
p395
sg15
I500
sg16
g12
sg17
g12
sg18
V/usr/share/texmf/fonts/opentype/public/lm/lmroman7-italic.otf
p396
sg20
g21
sbag1
(g8
g3
NtRp397
(dp398
g11
g12
sg13
VSaab
p399
sg15
I400
sg16
g12
sg17
g12
sg18
V/usr/share/fonts/truetype/fonts-guru-extra/Saab.ttf
p400
sg20
g21
sbag1
(g8
g3
NtRp401
(dp402
g11
g28
sg13
VLatin Modern Roman
p403
sg15
I500
sg16
g12
sg17
g12
sg18
V/usr/share/texmf/fonts/opentype/public/lm/lmroman9-italic.otf
p404
sg20
g21
sbag1
(g8
g3
NtRp405
(dp406
g11
g12
sg13
VSTIXGeneral
p407
sg15
I400
sg16
g12
sg17
g12
sg18
V/usr/share/fonts/opentype/stix/STIXGeneral-Regular.otf
p408
sg20
g21
sbag1
(g8
g3
NtRp409
(dp410
g11
g12
sg13
VSTIX
p411
sg15
I400
sg16
g12
sg17
g12
sg18
V/usr/share/fonts/opentype/stix-word/STIX-Regular.otf
p412
sg20
g21
sbag1
(g8
g3
NtRp413
(dp414
g11
g12
sg13
VKinnari
p415
sg15
I400
sg16
g12
sg17
g12
sg18
V/usr/share/fonts/truetype/tlwg/Kinnari.ttf
p416
sg20
g21
sbag1
(g8
g3
NtRp417
(dp418
g11
g28
sg13
VUbuntu Mono
p419
sg15
I700
sg16
g12
sg17
g12
sg18
V/usr/share/fonts/truetype/ubuntu-font-family/UbuntuMono-BI.ttf
p420
sg20
g21
sbag1
(g8
g3
NtRp421
(dp422
g11
g12
sg13
VTeX Gyre Pagella
p423
sg15
I400
sg16
g12
sg17
g12
sg18
V/usr/share/texmf/fonts/opentype/public/tex-gyre/texgyrepagella-regular.otf
p424
sg20
g21
sbag1
(g8
g3
NtRp425
(dp426
g11
g12
sg13
VLatin Modern Roman
p427
sg15
I700
sg16
g12
sg17
g12
sg18
V/usr/share/texmf/fonts/opentype/public/lm/lmroman8-bold.otf
p428
sg20
g21
sbag1
(g8
g3
NtRp429
(dp430
g11
g28
sg13
VTeX Gyre Pagella
p431
sg15
I400
sg16
g12
sg17
g12
sg18
V/usr/share/texmf/fonts/opentype/public/tex-gyre/texgyrepagella-italic.otf
p432
sg20
g21
sbag1
(g8
g3
NtRp433
(dp434
g11
g12
sg13
VTlwg Mono
p435
sg15
I400
sg16
g12
sg17
g12
sg18
V/usr/share/fonts/truetype/tlwg/TlwgMono.ttf
p436
sg20
g21
sbag1
(g8
g3
NtRp437
(dp438
g11
g12
sg13
VLatin Modern Roman Caps
p439
sg15
I400
sg16
g12
sg17
g12
sg18
V/usr/share/texmf/fonts/opentype/public/lm/lmromancaps10-regular.otf
p440
sg20
g21
sbag1
(g8
g3
NtRp441
(dp442
g11
g145
sg13
VPurisa
p443
sg15
I400
sg16
g12
sg17
g12
sg18
V/usr/share/fonts/truetype/tlwg/Purisa-Oblique.ttf
p444
sg20
g21
sbag1
(g8
g3
NtRp445
(dp446
g11
g28
sg13
VKinnari
p447
sg15
I400
sg16
g12
sg17
g12
sg18
V/usr/share/fonts/truetype/tlwg/Kinnari-Italic.ttf
p448
sg20
g21
sbag1
(g8
g3
NtRp449
(dp450
g11
g145
sg13
VBitstream Vera Sans Mono
p451
sg15
I400
sg16
g12
sg17
g12
sg18
V/usr/share/fonts/truetype/ttf-bitstream-vera/VeraMoIt.ttf
p452
sg20
g21
sbag1
(g8
g3
NtRp453
(dp454
g11
g12
sg13
VSTIXSizeOneSym
p455
sg15
I400
sg16
g12
sg17
g12
sg18
V/usr/share/fonts/opentype/stix/STIXSizeOneSym-Regular.otf
p456
sg20
g21
sbag1
(g8
g3
NtRp457
(dp458
g11
g12
sg13
VSTIX Math
p459
sg15
I400
sg16
g12
sg17
g12
sg18
V/usr/share/fonts/opentype/stix-word/STIXMath-Regular.otf
p460
sg20
g21
sbag1
(g8
g3
NtRp461
(dp462
g11
g12
sg13
Vstmary10
p463
sg15
I400
sg16
g12
sg17
g12
sg18
V/usr/share/fonts/truetype/lyx/stmary10.ttf
p464
sg20
g21
sbag1
(g8
g3
NtRp465
(dp466
g11
g28
sg13
VSTIX
p467
sg15
I400
sg16
g12
sg17
g12
sg18
V/usr/share/fonts/opentype/stix-word/STIX-Italic.otf
p468
sg20
g21
sbag1
(g8
g3
NtRp469
(dp470
g11
g145
sg13
VGaruda
p471
sg15
I700
sg16
g12
sg17
g12
sg18
V/usr/share/fonts/truetype/tlwg/Garuda-BoldOblique.ttf
p472
sg20
g21
sbag1
(g8
g3
NtRp473
(dp474
g11
g12
sg13
VDejaVu Sans
p475
sg15
I700
sg16
g199
sg17
g12
sg18
V/usr/share/fonts/truetype/dejavu/DejaVuSansCondensed-Bold.ttf
p476
sg20
g21
sbag1
(g8
g3
NtRp477
(dp478
g11
g145
sg13
VTlwg Typewriter
p479
sg15
I400
sg16
g12
sg17
g12
sg18
V/usr/share/fonts/truetype/tlwg/TlwgTypewriter-Oblique.ttf
p480
sg20
g21
sbag1
(g8
g3
NtRp481
(dp482
g11
g145
sg13
VLatin Modern Mono Prop Light
p483
sg15
I700
sg16
g12
sg17
g12
sg18
V/usr/share/texmf/fonts/opentype/public/lm/lmmonoproplt10-boldoblique.otf
p484
sg20
g21
sbag1
(g8
g3
NtRp485
(dp486
g11
g12
sg13
VUbuntu
p487
sg15
I500
sg16
g12
sg17
g12
sg18
V/usr/share/fonts/truetype/ubuntu-font-family/Ubuntu-M.ttf
p488
sg20
g21
sbag1
(g8
g3
NtRp489
(dp490
g11
g12
sg13
VGaruda
p491
sg15
I700
sg16
g12
sg17
g12
sg18
V/usr/share/fonts/truetype/tlwg/Garuda-Bold.ttf
p492
sg20
g21
sbag1
(g8
g3
NtRp493
(dp494
g11
g145
sg13
VTlwg Typist
p495
sg15
I700
sg16
g12
sg17
g12
sg18
V/usr/share/fonts/truetype/tlwg/TlwgTypist-BoldOblique.ttf
p496
sg20
g21
sbag1
(g8
g3
NtRp497
(dp498
g11
g28
sg13
VUbuntu
p499
sg15
I700
sg16
g12
sg17
g12
sg18
V/usr/share/fonts/truetype/ubuntu-font-family/Ubuntu-BI.ttf
p500
sg20
g21
sbag1
(g8
g3
NtRp501
(dp502
g11
g12
sg13
VBitstream Vera Sans
p503
sg15
I700
sg16
g12
sg17
g12
sg18
V/usr/share/fonts/truetype/ttf-bitstream-vera/VeraBd.ttf
p504
sg20
g21
sbag1
(g8
g3
NtRp505
(dp506
g11
g12
sg13
VLiberation Sans Narrow
p507
sg15
I700
sg16
g199
sg17
g12
sg18
V/usr/share/fonts/truetype/liberation/LiberationSansNarrow-Bold.ttf
p508
sg20
g21
sbag1
(g8
g3
NtRp509
(dp510
g11
g28
sg13
VSTIXGeneral
p511
sg15
I400
sg16
g12
sg17
g12
sg18
V/usr/share/fonts/opentype/stix/STIXGeneral-Italic.otf
p512
sg20
g21
sbag1
(g8
g3
NtRp513
(dp514
g11
g12
sg13
VDejaVu Sans Mono
p515
sg15
I700
sg16
g12
sg17
g12
sg18
V/usr/share/fonts/truetype/dejavu/DejaVuSansMono-Bold.ttf
p516
sg20
g21
sbag1
(g8
g3
NtRp517
(dp518
g11
g12
sg13
VBitstream Vera Serif
p519
sg15
I700
sg16
g12
sg17
g12
sg18
V/usr/share/fonts/truetype/ttf-bitstream-vera/VeraSeBd.ttf
p520
sg20
g21
sbag1
(g8
g3
NtRp521
(dp522
g11
g12
sg13
VLato
p523
sg15
I400
sg16
g12
sg17
g12
sg18
V/usr/share/fonts/truetype/lato/Lato-Regular.ttf
p524
sg20
g21
sbag1
(g8
g3
NtRp525
(dp526
g11
g145
sg13
VDejaVu Sans
p527
sg15
I400
sg16
g199
sg17
g12
sg18
V/usr/share/fonts/truetype/dejavu/DejaVuSansCondensed-Oblique.ttf
p528
sg20
g21
sbag1
(g8
g3
NtRp529
(dp530
g11
g145
sg13
VDejaVu Sans
p531
sg15
I400
sg16
g12
sg17
g12
sg18
V/usr/share/fonts/truetype/dejavu/DejaVuSans-Oblique.ttf
p532
sg20
g21
sbag1
(g8
g3
NtRp533
(dp534
g11
g12
sg13
VNanumBarunGothic
p535
sg15
I700
sg16
g12
sg17
g12
sg18
V/usr/share/fonts/truetype/nanum/NanumBarunGothicBold.ttf
p536
sg20
g21
sbag1
(g8
g3
NtRp537
(dp538
g11
g28
sg13
VTeX Gyre Bonum
p539
sg15
I700
sg16
g12
sg17
g12
sg18
V/usr/share/texmf/fonts/opentype/public/tex-gyre/texgyrebonum-bolditalic.otf
p540
sg20
g21
sbag1
(g8
g3
NtRp541
(dp542
g11
g28
sg13
VLato
p543
sg15
I800
sg16
g12
sg17
g12
sg18
V/usr/share/fonts/truetype/lato/Lato-HeavyItalic.ttf
p544
sg20
g21
sbag1
(g8
g3
NtRp545
(dp546
g11
g28
sg13
VLiberation Mono
p547
sg15
I400
sg16
g12
sg17
g12
sg18
V/usr/share/fonts/truetype/liberation/LiberationMono-Italic.ttf
p548
sg20
g21
sbag1
(g8
g3
NtRp549
(dp550
g11
g28
sg13
VLiberation Serif
p551
sg15
I700
sg16
g12
sg17
g12
sg18
V/usr/share/fonts/truetype/liberation/LiberationSerif-BoldItalic.ttf
p552
sg20
g21
sbag1
(g8
g3
NtRp553
(dp554
g11
g28
sg13
VTeX Gyre Pagella
p555
sg15
I700
sg16
g12
sg17
g12
sg18
V/usr/share/texmf/fonts/opentype/public/tex-gyre/texgyrepagella-bolditalic.otf
p556
sg20
g21
sbag1
(g8
g3
NtRp557
(dp558
g11
g12
sg13
VLatin Modern Mono Light
p559
sg15
I700
sg16
g12
sg17
g12
sg18
V/usr/share/texmf/fonts/opentype/public/lm/lmmonolt10-bold.otf
p560
sg20
g21
sbag1
(g8
g3
NtRp561
(dp562
g11
g28
sg13
VSTIXGeneral
p563
sg15
I700
sg16
g12
sg17
g12
sg18
V/usr/share/fonts/opentype/stix/STIXGeneral-BoldItalic.otf
p564
sg20
g21
sbag1
(g8
g3
NtRp565
(dp566
g11
g12
sg13
VWaree
p567
sg15
I700
sg16
g12
sg17
g12
sg18
V/usr/share/fonts/truetype/tlwg/Waree-Bold.ttf
p568
sg20
g21
sbag1
(g8
g3
NtRp569
(dp570
g11
g28
sg13
VLato
p571
sg15
I700
sg16
g12
sg17
g12
sg18
V/usr/share/fonts/truetype/lato/Lato-BoldItalic.ttf
p572
sg20
g21
sbag1
(g8
g3
NtRp573
(dp574
g11
g145
sg13
VLatin Modern Mono Light
p575
sg15
I700
sg16
g12
sg17
g12
sg18
V/usr/share/texmf/fonts/opentype/public/lm/lmmonolt10-boldoblique.otf
p576
sg20
g21
sbag1
(g8
g3
NtRp577
(dp578
g11
g12
sg13
VDejaVu Serif
p579
sg15
I400
sg16
g199
sg17
g12
sg18
V/usr/share/fonts/truetype/dejavu/DejaVuSerifCondensed.ttf
p580
sg20
g21
sbag1
(g8
g3
NtRp581
(dp582
g11
g12
sg13
VKacstQurn
p583
sg15
I400
sg16
g12
sg17
g12
sg18
V/usr/share/fonts/truetype/kacst/KacstQurn.ttf
p584
sg20
g21
sbag1
(g8
g3
NtRp585
(dp586
g11
g28
sg13
VLiberation Serif
p587
sg15
I400
sg16
g12
sg17
g12
sg18
V/usr/share/fonts/truetype/ttf-liberation/LiberationSerif-Italic.ttf
p588
sg20
g21
sbag1
(g8
g3
NtRp589
(dp590
g11
g145
sg13
VBitstream Vera Sans
p591
sg15
I700
sg16
g12
sg17
g12
sg18
V/usr/share/fonts/truetype/ttf-bitstream-vera/VeraBI.ttf
p592
sg20
g21
sbag1
(g8
g3
NtRp593
(dp594
g11
g12
sg13
VLatin Modern Roman
p595
sg15
I700
sg16
g12
sg17
g12
sg18
V/usr/share/texmf/fonts/opentype/public/lm/lmroman6-bold.otf
p596
sg20
g21
sbag1
(g8
g3
NtRp597
(dp598
g11
g28
sg13
VTeX Gyre Termes
p599
sg15
I400
sg16
g12
sg17
g12
sg18
V/usr/share/texmf/fonts/opentype/public/tex-gyre/texgyretermes-italic.otf
p600
sg20
g21
sbag1
(g8
g3
NtRp601
(dp602
g11
g12
sg13
VLatin Modern Mono Prop
p603
sg15
I400
sg16
g12
sg17
g12
sg18
V/usr/share/texmf/fonts/opentype/public/lm/lmmonoprop10-regular.otf
p604
sg20
g21
sbag1
(g8
g3
NtRp605
(dp606
g11
g12
sg13
VNorasi
p607
sg15
I700
sg16
g12
sg17
g12
sg18
V/usr/share/fonts/truetype/tlwg/Norasi-Bold.ttf
p608
sg20
g21
sbag1
(g8
g3
NtRp609
(dp610
g11
g28
sg13
VTeX Gyre Heros
p611
sg15
I400
sg16
g12
sg17
g12
sg18
V/usr/share/texmf/fonts/opentype/public/tex-gyre/texgyreheros-italic.otf
p612
sg20
g21
sbag1
(g8
g3
NtRp613
(dp614
g11
g28
sg13
VTeX Gyre Heros Cn
p615
sg15
I700
sg16
g12
sg17
g12
sg18
V/usr/share/texmf/fonts/opentype/public/tex-gyre/texgyreheroscn-bolditalic.otf
p616
sg20
g21
sbag1
(g8
g3
NtRp617
(dp618
g11
g145
sg13
VKinnari
p619
sg15
I700
sg16
g12
sg17
g12
sg18
V/usr/share/fonts/truetype/tlwg/Kinnari-BoldOblique.ttf
p620
sg20
g21
sbag1
(g8
g3
NtRp621
(dp622
g11
g12
sg13
VKacstOne
p623
sg15
I400
sg16
g12
sg17
g12
sg18
V/usr/share/fonts/truetype/kacst-one/KacstOne.ttf
p624
sg20
g21
sbag1
(g8
g3
NtRp625
(dp626
g11
g28
sg13
VTeX Gyre Schola
p627
sg15
I700
sg16
g12
sg17
g12
sg18
V/usr/share/texmf/fonts/opentype/public/tex-gyre/texgyreschola-bolditalic.otf
p628
sg20
g21
sbag1
(g8
g3
NtRp629
(dp630
g11
g12
sg13
VLatin Modern Roman Slanted
p631
sg15
I400
sg16
g12
sg17
g12
sg18
V/usr/share/texmf/fonts/opentype/public/lm/lmromanslant9-regular.otf
p632
sg20
g21
sbag1
(g8
g3
NtRp633
(dp634
g11
g12
sg13
VLatin Modern Mono Slanted
p635
sg15
I400
sg16
g12
sg17
g12
sg18
V/usr/share/texmf/fonts/opentype/public/lm/lmmonoslant10-regular.otf
p636
sg20
g21
sbag1
(g8
g3
NtRp637
(dp638
g11
g145
sg13
VLatin Modern Sans Quotation
p639
sg15
I700
sg16
g12
sg17
g12
sg18
V/usr/share/texmf/fonts/opentype/public/lm/lmsansquot8-boldoblique.otf
p640
sg20
g21
sbag1
(g8
g3
NtRp641
(dp642
g11
g12
sg13
VFreeMono
p643
sg15
I700
sg16
g12
sg17
g12
sg18
V/usr/share/fonts/truetype/freefont/FreeMonoBold.ttf
p644
sg20
g21
sbag1
(g8
g3
NtRp645
(dp646
g11
g12
sg13
VBitstream Vera Sans Mono
p647
sg15
I400
sg16
g12
sg17
g12
sg18
V/usr/share/fonts/truetype/ttf-bitstream-vera/VeraMono.ttf
p648
sg20
g21
sbag1
(g8
g3
NtRp649
(dp650
g11
g12
sg13
VKacstBook
p651
sg15
I400
sg16
g12
sg17
g12
sg18
V/usr/share/fonts/truetype/kacst/KacstBook.ttf
p652
sg20
g21
sbag1
(g8
g3
NtRp653
(dp654
g11
g12
sg13
VLato
p655
sg15
I400
sg16
g12
sg17
g12
sg18
V/usr/share/fonts/truetype/lato/Lato-Thin.ttf
p656
sg20
g21
sbag1
(g8
g3
NtRp657
(dp658
g11
g12
sg13
VTeX Gyre Heros
p659
sg15
I700
sg16
g12
sg17
g12
sg18
V/usr/share/texmf/fonts/opentype/public/tex-gyre/texgyreheros-bold.otf
p660
sg20
g21
sbag1
(g8
g3
NtRp661
(dp662
g11
g12
sg13
Vwasy10
p663
sg15
I400
sg16
g12
sg17
g12
sg18
V/usr/share/fonts/truetype/lyx/wasy10.ttf
p664
sg20
g21
sbag1
(g8
g3
NtRp665
(dp666
g11
g12
sg13
VDejaVu Sans
p667
sg15
I400
sg16
g199
sg17
g12
sg18
V/usr/share/fonts/truetype/dejavu/DejaVuSansCondensed.ttf
p668
sg20
g21
sbag1
(g8
g3
NtRp669
(dp670
g11
g28
sg13
VSTIXNonUnicode
p671
sg15
I400
sg16
g12
sg17
g12
sg18
V/usr/share/fonts/opentype/stix/STIXNonUnicode-Italic.otf
p672
sg20
g21
sbag1
(g8
g3
NtRp673
(dp674
g11
g145
sg13
VDejaVu Sans
p675
sg15
I700
sg16
g199
sg17
g12
sg18
V/usr/share/fonts/truetype/dejavu/DejaVuSansCondensed-BoldOblique.ttf
p676
sg20
g21
sbag1
(g8
g3
NtRp677
(dp678
g11
g12
sg13
VLatin Modern Roman
p679
sg15
I400
sg16
g12
sg17
g12
sg18
V/usr/share/texmf/fonts/opentype/public/lm/lmroman8-regular.otf
p680
sg20
g21
sbag1
(g8
g3
NtRp681
(dp682
g11
g12
sg13
VKacstDecorative
p683
sg15
I400
sg16
g12
sg17
g12
sg18
V/usr/share/fonts/truetype/kacst/KacstDecorative.ttf
p684
sg20
g21
sbag1
(g8
g3
NtRp685
(dp686
g11
g12
sg13
VUbuntu
p687
sg15
I700
sg16
g12
sg17
g12
sg18
V/usr/share/fonts/truetype/ubuntu-font-family/Ubuntu-B.ttf
p688
sg20
g21
sbag1
(g8
g3
NtRp689
(dp690
g11
g145
sg13
VFreeSans
p691
sg15
I700
sg16
g12
sg17
g12
sg18
V/usr/share/fonts/truetype/freefont/FreeSansBoldOblique.ttf
p692
sg20
g21
sbag1
(g8
g3
NtRp693
(dp694
g11
g145
sg13
VLatin Modern Sans
p695
sg15
I400
sg16
g12
sg17
g12
sg18
V/usr/share/texmf/fonts/opentype/public/lm/lmsans12-oblique.otf
p696
sg20
g21
sbag1
(g8
g3
NtRp697
(dp698
g11
g28
sg13
VLato
p699
sg15
I400
sg16
g12
sg17
g12
sg18
V/usr/share/fonts/truetype/lato/Lato-HairlineItalic.ttf
p700
sg20
g21
sbag1
(g8
g3
NtRp701
(dp702
g11
g12
sg13
VSTIXNonUnicode
p703
sg15
I400
sg16
g12
sg17
g12
sg18
V/usr/share/fonts/opentype/stix/STIXNonUnicode-Regular.otf
p704
sg20
g21
sbag1
(g8
g3
NtRp705
(dp706
g11
g12
sg13
VLato
p707
sg15
I700
sg16
g12
sg17
g12
sg18
V/usr/share/fonts/truetype/lato/Lato-Bold.ttf
p708
sg20
g21
sbag1
(g8
g3
NtRp709
(dp710
g11
g12
sg13
VPadauk Book
p711
sg15
I700
sg16
g12
sg17
g12
sg18
V/usr/share/fonts/truetype/padauk/Padauk-bookbold.ttf
p712
sg20
g21
sbag1
(g8
g3
NtRp713
(dp714
g11
g12
sg13
VFreeSans
p715
sg15
I400
sg16
g12
sg17
g12
sg18
V/usr/share/fonts/truetype/freefont/FreeSans.ttf
p716
sg20
g21
sbag1
(g8
g3
NtRp717
(dp718
g11
g12
sg13
VNanumMyeongjo
p719
sg15
I700
sg16
g12
sg17
g12
sg18
V/usr/share/fonts/truetype/nanum/NanumMyeongjoBold.ttf
p720
sg20
g21
sbag1
(g8
g3
NtRp721
(dp722
g11
g145
sg13
VKinnari
p723
sg15
I400
sg16
g12
sg17
g12
sg18
V/usr/share/fonts/truetype/tlwg/Kinnari-Oblique.ttf
p724
sg20
g21
sbag1
(g8
g3
NtRp725
(dp726
g11
g28
sg13
VTeX Gyre Adventor
p727
sg15
I700
sg16
g12
sg17
g12
sg18
V/usr/share/texmf/fonts/opentype/public/tex-gyre/texgyreadventor-bolditalic.otf
p728
sg20
g21
sbag1
(g8
g3
NtRp729
(dp730
g11
g12
sg13
VUmpush
p731
sg15
I200
sg16
g12
sg17
g12
sg18
V/usr/share/fonts/truetype/tlwg/Umpush-Light.ttf
p732
sg20
g21
sbag1
(g8
g3
NtRp733
(dp734
g11
g28
sg13
VTeX Gyre Schola
p735
sg15
I400
sg16
g12
sg17
g12
sg18
V/usr/share/texmf/fonts/opentype/public/tex-gyre/texgyreschola-italic.otf
p736
sg20
g21
sbag1
(g8
g3
NtRp737
(dp738
g11
g145
sg13
VPurisa
p739
sg15
I700
sg16
g12
sg17
g12
sg18
V/usr/share/fonts/truetype/tlwg/Purisa-BoldOblique.ttf
p740
sg20
g21
sbag1
(g8
g3
NtRp741
(dp742
g11
g12
sg13
VSTIX
p743
sg15
I700
sg16
g12
sg17
g12
sg18
V/usr/share/fonts/opentype/stix-word/STIX-Bold.otf
p744
sg20
g21
sbag1
(g8
g3
NtRp745
(dp746
g11
g12
sg13
VTeX Gyre Heros
p747
sg15
I400
sg16
g12
sg17
g12
sg18
V/usr/share/texmf/fonts/opentype/public/tex-gyre/texgyreheros-regular.otf
p748
sg20
g21
sbag1
(g8
g3
NtRp749
(dp750
g11
g12
sg13
VDejaVu Sans
p751
sg15
I400
sg16
g12
sg17
g12
sg18
V/usr/share/fonts/truetype/dejavu/DejaVuSans.ttf
p752
sg20
g21
sbag1
(g8
g3
NtRp753
(dp754
g11
g12
sg13
VPhetsarath OT
p755
sg15
I400
sg16
g12
sg17
g12
sg18
V/usr/share/fonts/truetype/lao/Phetsarath_OT.ttf
p756
sg20
g21
sbag1
(g8
g3
NtRp757
(dp758
g11
g145
sg13
VFreeMono
p759
sg15
I400
sg16
g12
sg17
g12
sg18
V/usr/share/fonts/truetype/freefont/FreeMonoOblique.ttf
p760
sg20
g21
sbag1
(g8
g3
NtRp761
(dp762
g11
g28
sg13
VSTIXNonUnicode
p763
sg15
I700
sg16
g12
sg17
g12
sg18
V/usr/share/fonts/opentype/stix/STIXNonUnicode-BoldItalic.otf
p764
sg20
g21
sbag1
(g8
g3
NtRp765
(dp766
g11
g12
sg13
VBitstream Vera Serif
p767
sg15
I400
sg16
g12
sg17
g12
sg18
V/usr/share/fonts/truetype/ttf-bitstream-vera/VeraSe.ttf
p768
sg20
g21
sbag1
(g8
g3
NtRp769
(dp770
g11
g12
sg13
VLatin Modern Sans
p771
sg15
I400
sg16
g12
sg17
g12
sg18
V/usr/share/texmf/fonts/opentype/public/lm/lmsans9-regular.otf
p772
sg20
g21
sbag1
(g8
g3
NtRp773
(dp774
g11
g28
sg13
VLato
p775
sg15
I200
sg16
g12
sg17
g12
sg18
V/usr/share/fonts/truetype/lato/Lato-LightItalic.ttf
p776
sg20
g21
sbag1
(g8
g3
NtRp777
(dp778
g11
g12
sg13
VSTIXVariants
p779
sg15
I700
sg16
g12
sg17
g12
sg18
V/usr/share/fonts/opentype/stix/STIXVariants-Bold.otf
p780
sg20
g21
sbag1
(g8
g3
NtRp781
(dp782
g11
g145
sg13
VLatin Modern Sans Quotation
p783
sg15
I700
sg16
g12
sg17
g12
sg18
V/usr/share/texmf/fonts/opentype/public/lm/lmsansquot8-oblique.otf
p784
sg20
g21
sbag1
(g8
g3
NtRp785
(dp786
g11
g28
sg13
VLato
p787
sg15
I400
sg16
g12
sg17
g12
sg18
V/usr/share/fonts/truetype/lato/Lato-ThinItalic.ttf
p788
sg20
g21
sbag1
(g8
g3
NtRp789
(dp790
g11
g12
sg13
VSTIXIntegralsD
p791
sg15
I400
sg16
g12
sg17
g12
sg18
V/usr/share/fonts/opentype/stix/STIXIntegralsD-Regular.otf
p792
sg20
g21
sbag1
(g8
g3
NtRp793
(dp794
g11
g145
sg13
VSawasdee
p795
sg15
I400
sg16
g12
sg17
g12
sg18
V/usr/share/fonts/truetype/tlwg/Sawasdee-Oblique.ttf
p796
sg20
g21
sbag1
(g8
g3
NtRp797
(dp798
g11
g28
sg13
VLatin Modern Roman
p799
sg15
I700
sg16
g12
sg17
g12
sg18
V/usr/share/texmf/fonts/opentype/public/lm/lmroman10-bolditalic.otf
p800
sg20
g21
sbag1
(g8
g3
NtRp801
(dp802
g11
g12
sg13
VSTIXIntegralsD
p803
sg15
I700
sg16
g12
sg17
g12
sg18
V/usr/share/fonts/opentype/stix/STIXIntegralsD-Bold.otf
p804
sg20
g21
sbag1
(g8
g3
NtRp805
(dp806
g11
g12
sg13
VKhmer OS
p807
sg15
I400
sg16
g12
sg17
g12
sg18
V/usr/share/fonts/truetype/ttf-khmeros-core/KhmerOS.ttf
p808
sg20
g21
sbag1
(g8
g3
NtRp809
(dp810
g11
g12
sg13
VPadauk
p811
sg15
I400
sg16
g12
sg17
g12
sg18
V/usr/share/fonts/truetype/padauk/Padauk.ttf
p812
sg20
g21
sbag1
(g8
g3
NtRp813
(dp814
g11
g12
sg13
VTeX Gyre Pagella
p815
sg15
I700
sg16
g12
sg17
g12
sg18
V/usr/share/texmf/fonts/opentype/public/tex-gyre/texgyrepagella-bold.otf
p816
sg20
g21
sbag1
(g8
g3
NtRp817
(dp818
g11
g12
sg13
VLatin Modern Mono Prop Light
p819
sg15
I400
sg16
g12
sg17
g12
sg18
V/usr/share/texmf/fonts/opentype/public/lm/lmmonoproplt10-regular.otf
p820
sg20
g21
sbag1
(g8
g3
NtRp821
(dp822
g11
g12
sg13
VTeX Gyre Heros Cn
p823
sg15
I700
sg16
g12
sg17
g12
sg18
V/usr/share/texmf/fonts/opentype/public/tex-gyre/texgyreheroscn-bold.otf
p824
sg20
g21
sbag1
(g8
g3
NtRp825
(dp826
g11
g28
sg13
VLato
p827
sg15
I900
sg16
g12
sg17
g12
sg18
V/usr/share/fonts/truetype/lato/Lato-BlackItalic.ttf
p828
sg20
g21
sbag1
(g8
g3
NtRp829
(dp830
g11
g12
sg13
VWaree
p831
sg15
I400
sg16
g12
sg17
g12
sg18
V/usr/share/fonts/truetype/tlwg/Waree.ttf
p832
sg20
g21
sbag1
(g8
g3
NtRp833
(dp834
g11
g12
sg13
VFreeMono
p835
sg15
I400
sg16
g12
sg17
g12
sg18
V/usr/share/fonts/truetype/freefont/FreeMono.ttf
p836
sg20
g21
sbag1
(g8
g3
NtRp837
(dp838
g11
g12
sg13
VLatin Modern Mono
p839
sg15
I400
sg16
g12
sg17
g12
sg18
V/usr/share/texmf/fonts/opentype/public/lm/lmmono9-regular.otf
p840
sg20
g21
sbag1
(g8
g3
NtRp841
(dp842
g11
g12
sg13
VSTIXIntegralsUpSm
p843
sg15
I700
sg16
g12
sg17
g12
sg18
V/usr/share/fonts/opentype/stix/STIXIntegralsUpSm-Bold.otf
p844
sg20
g21
sbag1
(g8
g3
NtRp845
(dp846
g11
g12
sg13
VLatin Modern Roman
p847
sg15
I700
sg16
g12
sg17
g12
sg18
V/usr/share/texmf/fonts/opentype/public/lm/lmroman10-bold.otf
p848
sg20
g21
sbag1
(g8
g3
NtRp849
(dp850
g11
g12
sg13
VLiberation Sans
p851
sg15
I400
sg16
g12
sg17
g12
sg18
V/usr/share/fonts/truetype/ttf-liberation/LiberationSans-Regular.ttf
p852
sg20
g21
sbag1
(g8
g3
NtRp853
(dp854
g11
g12
sg13
VLiberation Sans Narrow
p855
sg15
I400
sg16
g199
sg17
g12
sg18
V/usr/share/fonts/truetype/ttf-liberation/LiberationSansNarrow-Regular.ttf
p856
sg20
g21
sbag1
(g8
g3
NtRp857
(dp858
g11
g12
sg13
VLatin Modern Roman
p859
sg15
I400
sg16
g12
sg17
g12
sg18
V/usr/share/texmf/fonts/opentype/public/lm/lmroman7-regular.otf
p860
sg20
g21
sbag1
(g8
g3
NtRp861
(dp862
g11
g12
sg13
VUmpush
p863
sg15
I400
sg16
g12
sg17
g12
sg18
V/usr/share/fonts/truetype/tlwg/Umpush.ttf
p864
sg20
g21
sbag1
(g8
g3
NtRp865
(dp866
g11
g28
sg13
VTeX Gyre Heros
p867
sg15
I700
sg16
g12
sg17
g12
sg18
V/usr/share/texmf/fonts/opentype/public/tex-gyre/texgyreheros-bolditalic.otf
p868
sg20
g21
sbag1
(g8
g3
NtRp869
(dp870
g11
g28
sg13
VTeX Gyre Cursor
p871
sg15
I700
sg16
g12
sg17
g12
sg18
V/usr/share/texmf/fonts/opentype/public/tex-gyre/texgyrecursor-bolditalic.otf
p872
sg20
g21
sbag1
(g8
g3
NtRp873
(dp874
g11
g12
sg13
VLatin Modern Sans
p875
sg15
I700
sg16
g12
sg17
g12
sg18
V/usr/share/texmf/fonts/opentype/public/lm/lmsans10-bold.otf
p876
sg20
g21
sbag1
(g8
g3
NtRp877
(dp878
g11
g12
sg13
VDejaVu Sans Mono
p879
sg15
I400
sg16
g12
sg17
g12
sg18
V/usr/share/fonts/truetype/ttf-dejavu/DejaVuSansMono.ttf
p880
sg20
g21
sbag1
(g8
g3
NtRp881
(dp882
g11
g12
sg13
VLatin Modern Math
p883
sg15
I400
sg16
g12
sg17
g12
sg18
V/usr/share/texmf/fonts/opentype/public/lm-math/latinmodern-math.otf
p884
sg20
g21
sbag1
(g8
g3
NtRp885
(dp886
g11
g12
sg13
VLiberation Mono
p887
sg15
I700
sg16
g12
sg17
g12
sg18
V/usr/share/fonts/truetype/liberation/LiberationMono-Bold.ttf
p888
sg20
g21
sbag1
(g8
g3
NtRp889
(dp890
g11
g12
sg13
VDejaVu Sans
p891
sg15
I700
sg16
g12
sg17
g12
sg18
V/usr/share/fonts/truetype/dejavu/DejaVuSans-Bold.ttf
p892
sg20
g21
sbag1
(g8
g3
NtRp893
(dp894
g11
g12
sg13
Vmsam10
p895
sg15
I400
sg16
g12
sg17
g12
sg18
V/usr/share/fonts/truetype/lyx/msam10.ttf
p896
sg20
g21
sbag1
(g8
g3
NtRp897
(dp898
g11
g12
sg13
VTeX Gyre Termes
p899
sg15
I400
sg16
g12
sg17
g12
sg18
V/usr/share/texmf/fonts/opentype/public/tex-gyre/texgyretermes-regular.otf
p900
sg20
g21
sbag1
(g8
g3
NtRp901
(dp902
g11
g12
sg13
VLKLUG
p903
sg15
I400
sg16
g12
sg17
g12
sg18
V/usr/share/fonts/truetype/sinhala/lklug.ttf
p904
sg20
g21
sbag1
(g8
g3
NtRp905
(dp906
g11
g12
sg13
VUbuntu
p907
sg15
I400
sg16
g12
sg17
g12
sg18
V/usr/share/fonts/truetype/ubuntu-font-family/Ubuntu-R.ttf
p908
sg20
g21
sbag1
(g8
g3
NtRp909
(dp910
g11
g145
sg13
VDejaVu Sans
p911
sg15
I700
sg16
g12
sg17
g12
sg18
V/usr/share/fonts/truetype/dejavu/DejaVuSans-BoldOblique.ttf
p912
sg20
g21
sbag1
(g8
g3
NtRp913
(dp914
g11
g145
sg13
VTlwg Mono
p915
sg15
I400
sg16
g12
sg17
g12
sg18
V/usr/share/fonts/truetype/tlwg/TlwgMono-Oblique.ttf
p916
sg20
g21
sbag1
(g8
g3
NtRp917
(dp918
g11
g28
sg13
VLiberation Sans Narrow
p919
sg15
I400
sg16
g199
sg17
g12
sg18
V/usr/share/fonts/truetype/ttf-liberation/LiberationSansNarrow-Italic.ttf
p920
sg20
g21
sbag1
(g8
g3
NtRp921
(dp922
g11
g12
sg13
Vmsbm10
p923
sg15
I400
sg16
g12
sg17
g12
sg18
V/usr/share/fonts/truetype/lyx/msbm10.ttf
p924
sg20
g21
sbag1
(g8
g3
NtRp925
(dp926
g11
g28
sg13
VDejaVu Serif
p927
sg15
I400
sg16
g12
sg17
g12
sg18
V/usr/share/fonts/truetype/dejavu/DejaVuSerif-Italic.ttf
p928
sg20
g21
sbag1
(g8
g3
NtRp929
(dp930
g11
g12
sg13
VKacstLetter
p931
sg15
I400
sg16
g12
sg17
g12
sg18
V/usr/share/fonts/truetype/kacst/KacstLetter.ttf
p932
sg20
g21
sbag1
(g8
g3
NtRp933
(dp934
g11
g145
sg13
VTlwg Mono
p935
sg15
I700
sg16
g12
sg17
g12
sg18
V/usr/share/fonts/truetype/tlwg/TlwgMono-BoldOblique.ttf
p936
sg20
g21
sbag1
(g8
g3
NtRp937
(dp938
g11
g12
sg13
VSTIXSizeTwoSym
p939
sg15
I400
sg16
g12
sg17
g12
sg18
V/usr/share/fonts/opentype/stix/STIXSizeTwoSym-Regular.otf
p940
sg20
g21
sbag1
(g8
g3
NtRp941
(dp942
g11
g12
sg13
VTeX Gyre Pagella Math
p943
sg15
I400
sg16
g12
sg17
g12
sg18
V/usr/share/texmf/fonts/opentype/public/tex-gyre-math/texgyrepagella-math.otf
p944
sg20
g21
sbag1
(g8
g3
NtRp945
(dp946
g11
g12
sg13
VTakaoPGothic
p947
sg15
I400
sg16
g12
sg17
g12
sg18
V/usr/share/fonts/truetype/takao-gothic/TakaoPGothic.ttf
p948
sg20
g21
sbag1
(g8
g3
NtRp949
(dp950
g11
g28
sg13
VTeX Gyre Heros Cn
p951
sg15
I400
sg16
g12
sg17
g12
sg18
V/usr/share/texmf/fonts/opentype/public/tex-gyre/texgyreheroscn-italic.otf
p952
sg20
g21
sbag1
(g8
g3
NtRp953
(dp954
g11
g12
sg13
VSTIXSizeFiveSym
p955
sg15
I400
sg16
g12
sg17
g12
sg18
V/usr/share/fonts/opentype/stix/STIXSizeFiveSym-Regular.otf
p956
sg20
g21
sbag1
(g8
g3
NtRp957
(dp958
g11
g12
sg13
VDejaVu Serif
p959
sg15
I700
sg16
g12
sg17
g12
sg18
V/usr/share/fonts/truetype/ttf-dejavu/DejaVuSerif-Bold.ttf
p960
sg20
g21
sbag1
(g8
g3
NtRp961
(dp962
g11
g12
sg13
VLatin Modern Mono
p963
sg15
I400
sg16
g12
sg17
g12
sg18
V/usr/share/texmf/fonts/opentype/public/lm/lmmono12-regular.otf
p964
sg20
g21
sbag1
(g8
g3
NtRp965
(dp966
g11
g28
sg13
VNorasi
p967
sg15
I700
sg16
g12
sg17
g12
sg18
V/usr/share/fonts/truetype/tlwg/Norasi-BoldItalic.ttf
p968
sg20
g21
sbag1
(g8
g3
NtRp969
(dp970
g11
g12
sg13
VUmpush
p971
sg15
I700
sg16
g12
sg17
g12
sg18
V/usr/share/fonts/truetype/tlwg/Umpush-Bold.ttf
p972
sg20
g21
sbag1
(g8
g3
NtRp973
(dp974
g11
g28
sg13
VLiberation Sans
p975
sg15
I700
sg16
g12
sg17
g12
sg18
V/usr/share/fonts/truetype/liberation/LiberationSans-BoldItalic.ttf
p976
sg20
g21
sbag1
(g8
g3
NtRp977
(dp978
g11
g12
sg13
VTeX Gyre Adventor
p979
sg15
I700
sg16
g12
sg17
g12
sg18
V/usr/share/texmf/fonts/opentype/public/tex-gyre/texgyreadventor-bold.otf
p980
sg20
g21
sbag1
(g8
g3
NtRp981
(dp982
g11
g145
sg13
VNorasi
p983
sg15
I700
sg16
g12
sg17
g12
sg18
V/usr/share/fonts/truetype/tlwg/Norasi-BoldOblique.ttf
p984
sg20
g21
sbag1
(g8
g3
NtRp985
(dp986
g11
g12
sg13
VLatin Modern Mono Light Cond
p987
sg15
I400
sg16
g199
sg17
g12
sg18
V/usr/share/texmf/fonts/opentype/public/lm/lmmonoltcond10-regular.otf
p988
sg20
g21
sbag1
(g8
g3
NtRp989
(dp990
g11
g12
sg13
VLatin Modern Roman Demi
p991
sg15
I600
sg16
g12
sg17
g12
sg18
V/usr/share/texmf/fonts/opentype/public/lm/lmromandemi10-regular.otf
p992
sg20
g21
sbag1
(g8
g3
NtRp993
(dp994
g11
g28
sg13
VUbuntu Mono
p995
sg15
I400
sg16
g12
sg17
g12
sg18
V/usr/share/fonts/truetype/ubuntu-font-family/UbuntuMono-RI.ttf
p996
sg20
g21
sbag1
(g8
g3
NtRp997
(dp998
g11
g12
sg13
VLato
p999
sg15
I900
sg16
g12
sg17
g12
sg18
V/usr/share/fonts/truetype/lato/Lato-Black.ttf
p1000
sg20
g21
sbag1
(g8
g3
NtRp1001
(dp1002
g11
g12
sg13
VUbuntu
p1003
sg15
I200
sg16
g12
sg17
g12
sg18
V/usr/share/fonts/truetype/ubuntu-font-family/Ubuntu-L.ttf
p1004
sg20
g21
sbag1
(g8
g3
NtRp1005
(dp1006
g11
g12
sg13
VLatin Modern Roman
p1007
sg15
I400
sg16
g12
sg17
g12
sg18
V/usr/share/texmf/fonts/opentype/public/lm/lmroman9-regular.otf
p1008
sg20
g21
sbag1
(g8
g3
NtRp1009
(dp1010
g11
g145
sg13
VLatin Modern Sans Demi Cond
p1011
sg15
I600
sg16
g199
sg17
g12
sg18
V/usr/share/texmf/fonts/opentype/public/lm/lmsansdemicond10-oblique.otf
p1012
sg20
g21
sbag1
(g8
g3
NtRp1013
(dp1014
g11
g12
sg13
VDejaVu Sans
p1015
sg15
I200
sg16
g12
sg17
g12
sg18
V/usr/share/fonts/truetype/dejavu/DejaVuSans-ExtraLight.ttf
p1016
sg20
g21
sbag1
(g8
g3
NtRp1017
(dp1018
g11
g12
sg13
VKacstFarsi
p1019
sg15
I400
sg16
g12
sg17
g12
sg18
V/usr/share/fonts/truetype/kacst/KacstFarsi.ttf
p1020
sg20
g21
sbag1
(g8
g3
NtRp1021
(dp1022
g11
g12
sg13
VLato
p1023
sg15
I700
sg16
g12
sg17
g12
sg18
V/usr/share/fonts/truetype/lato/Lato-Semibold.ttf
p1024
sg20
g21
sbag1
(g8
g3
NtRp1025
(dp1026
g11
g12
sg13
VLatin Modern Roman Slanted
p1027
sg15
I400
sg16
g12
sg17
g12
sg18
V/usr/share/texmf/fonts/opentype/public/lm/lmromanslant17-regular.otf
p1028
sg20
g21
sbag1
(g8
g3
NtRp1029
(dp1030
g11
g12
sg13
VTeX Gyre Cursor
p1031
sg15
I700
sg16
g12
sg17
g12
sg18
V/usr/share/texmf/fonts/opentype/public/tex-gyre/texgyrecursor-bold.otf
p1032
sg20
g21
sbag1
(g8
g3
NtRp1033
(dp1034
g11
g12
sg13
VTeX Gyre Adventor
p1035
sg15
I400
sg16
g12
sg17
g12
sg18
V/usr/share/texmf/fonts/opentype/public/tex-gyre/texgyreadventor-regular.otf
p1036
sg20
g21
sbag1
(g8
g3
NtRp1037
(dp1038
g11
g145
sg13
VLatin Modern Mono Light Cond
p1039
sg15
I200
sg16
g199
sg17
g12
sg18
V/usr/share/texmf/fonts/opentype/public/lm/lmmonoltcond10-oblique.otf
p1040
sg20
g21
sbag1
(g8
g3
NtRp1041
(dp1042
g11
g145
sg13
VLoma
p1043
sg15
I700
sg16
g12
sg17
g12
sg18
V/usr/share/fonts/truetype/tlwg/Loma-BoldOblique.ttf
p1044
sg20
g21
sbag1
(g8
g3
NtRp1045
(dp1046
g11
g12
sg13
VTlwg Typewriter
p1047
sg15
I400
sg16
g12
sg17
g12
sg18
V/usr/share/fonts/truetype/tlwg/TlwgTypewriter.ttf
p1048
sg20
g21
sbag1
(g8
g3
NtRp1049
(dp1050
g11
g12
sg13
VLatin Modern Roman
p1051
sg15
I700
sg16
g12
sg17
g12
sg18
V/usr/share/texmf/fonts/opentype/public/lm/lmroman7-bold.otf
p1052
sg20
g21
sbag1
(g8
g3
NtRp1053
(dp1054
g11
g12
sg13
VTeX Gyre Termes
p1055
sg15
I700
sg16
g12
sg17
g12
sg18
V/usr/share/texmf/fonts/opentype/public/tex-gyre/texgyretermes-bold.otf
p1056
sg20
g21
sbag1
(g8
g3
NtRp1057
(dp1058
g11
g12
sg13
VLatin Modern Roman
p1059
sg15
I700
sg16
g12
sg17
g12
sg18
V/usr/share/texmf/fonts/opentype/public/lm/lmroman9-bold.otf
p1060
sg20
g21
sbag1
(g8
g3
NtRp1061
(dp1062
g11
g145
sg13
VLatin Modern Sans
p1063
sg15
I400
sg16
g12
sg17
g12
sg18
V/usr/share/texmf/fonts/opentype/public/lm/lmsans8-oblique.otf
p1064
sg20
g21
sbag1
(g8
g3
NtRp1065
(dp1066
g11
g145
sg13
VFreeMono
p1067
sg15
I700
sg16
g12
sg17
g12
sg18
V/usr/share/fonts/truetype/freefont/FreeMonoBoldOblique.ttf
p1068
sg20
g21
sbag1
(g8
g3
NtRp1069
(dp1070
g11
g12
sg13
VTeX Gyre Schola
p1071
sg15
I700
sg16
g12
sg17
g12
sg18
V/usr/share/texmf/fonts/opentype/public/tex-gyre/texgyreschola-bold.otf
p1072
sg20
g21
sbag1
(g8
g3
NtRp1073
(dp1074
g11
g28
sg13
VDejaVu Serif
p1075
sg15
I400
sg16
g199
sg17
g12
sg18
V/usr/share/fonts/truetype/dejavu/DejaVuSerifCondensed-Italic.ttf
p1076
sg20
g21
sbag1
(g8
g3
NtRp1077
(dp1078
g11
g12
sg13
VKacstArt
p1079
sg15
I400
sg16
g12
sg17
g12
sg18
V/usr/share/fonts/truetype/kacst/KacstArt.ttf
p1080
sg20
g21
sbag1
(g8
g3
NtRp1081
(dp1082
g11
g28
sg13
VLiberation Sans Narrow
p1083
sg15
I700
sg16
g199
sg17
g12
sg18
V/usr/share/fonts/truetype/liberation/LiberationSansNarrow-BoldItalic.ttf
p1084
sg20
g21
sbag1
(g8
g3
NtRp1085
(dp1086
g11
g12
sg13
VLatin Modern Roman Dunhill
p1087
sg15
I400
sg16
g12
sg17
g12
sg18
V/usr/share/texmf/fonts/opentype/public/lm/lmromandunh10-regular.otf
p1088
sg20
g21
sbag1
(g8
g3
NtRp1089
(dp1090
g11
g12
sg13
VSTIXIntegralsSm
p1091
sg15
I700
sg16
g12
sg17
g12
sg18
V/usr/share/fonts/opentype/stix/STIXIntegralsSm-Bold.otf
p1092
sg20
g21
sbag1
(g8
g3
NtRp1093
(dp1094
g11
g12
sg13
VUbuntu Mono
p1095
sg15
I700
sg16
g12
sg17
g12
sg18
V/usr/share/fonts/truetype/ubuntu-font-family/UbuntuMono-B.ttf
p1096
sg20
g21
sbag1
(g8
g3
NtRp1097
(dp1098
g11
g145
sg13
VBitstream Vera Sans Mono
p1099
sg15
I700
sg16
g12
sg17
g12
sg18
V/usr/share/fonts/truetype/ttf-bitstream-vera/VeraMoBI.ttf
p1100
sg20
g21
sbag1
(g8
g3
NtRp1101
(dp1102
g11
g12
sg13
VLatin Modern Sans
p1103
sg15
I400
sg16
g12
sg17
g12
sg18
V/usr/share/texmf/fonts/opentype/public/lm/lmsans17-regular.otf
p1104
sg20
g21
sbag1
(g8
g3
NtRp1105
(dp1106
g11
g12
sg13
VSTIXSizeTwoSym
p1107
sg15
I700
sg16
g12
sg17
g12
sg18
V/usr/share/fonts/opentype/stix/STIXSizeTwoSym-Bold.otf
p1108
sg20
g21
sbag1
(g8
g3
NtRp1109
(dp1110
g11
g12
sg13
VKinnari
p1111
sg15
I700
sg16
g12
sg17
g12
sg18
V/usr/share/fonts/truetype/tlwg/Kinnari-Bold.ttf
p1112
sg20
g21
sbag1
(g8
g3
NtRp1113
(dp1114
g11
g145
sg13
VTlwg Typewriter
p1115
sg15
I700
sg16
g12
sg17
g12
sg18
V/usr/share/fonts/truetype/tlwg/TlwgTypewriter-BoldOblique.ttf
p1116
sg20
g21
sbag1
(g8
g3
NtRp1117
(dp1118
g11
g12
sg13
VTeX Gyre Chorus
p1119
sg15
I400
sg16
g12
sg17
g12
sg18
V/usr/share/texmf/fonts/opentype/public/tex-gyre/texgyrechorus-mediumitalic.otf
p1120
sg20
g21
sbag1
(g8
g3
NtRp1121
(dp1122
g11
g12
sg13
VFreeSerif
p1123
sg15
I400
sg16
g12
sg17
g12
sg18
V/usr/share/fonts/truetype/freefont/FreeSerif.ttf
p1124
sg20
g21
sbag1
(g8
g3
NtRp1125
(dp1126
g11
g12
sg13
VLatin Modern Roman Slanted
p1127
sg15
I400
sg16
g12
sg17
g12
sg18
V/usr/share/texmf/fonts/opentype/public/lm/lmromanslant10-regular.otf
p1128
sg20
g21
sbag1
(g8
g3
NtRp1129
(dp1130
g11
g145
sg13
VSawasdee
p1131
sg15
I700
sg16
g12
sg17
g12
sg18
V/usr/share/fonts/truetype/tlwg/Sawasdee-BoldOblique.ttf
p1132
sg20
g21
sbag1
(g8
g3
NtRp1133
(dp1134
g11
g12
sg13
VSTIXIntegralsSm
p1135
sg15
I400
sg16
g12
sg17
g12
sg18
V/usr/share/fonts/opentype/stix/STIXIntegralsSm-Regular.otf
p1136
sg20
g21
sbag1
(g8
g3
NtRp1137
(dp1138
g11
g145
sg13
VLatin Modern Sans
p1139
sg15
I700
sg16
g12
sg17
g12
sg18
V/usr/share/texmf/fonts/opentype/public/lm/lmsans10-boldoblique.otf
p1140
sg20
g21
sbag1
(g8
g3
NtRp1141
(dp1142
g11
g12
sg13
VLatin Modern Sans Quotation
p1143
sg15
I700
sg16
g12
sg17
g12
sg18
V/usr/share/texmf/fonts/opentype/public/lm/lmsansquot8-bold.otf
p1144
sg20
g21
sbag1
(g8
g3
NtRp1145
(dp1146
g11
g12
sg13
VNanumMyeongjo
p1147
sg15
I400
sg16
g12
sg17
g12
sg18
V/usr/share/fonts/truetype/nanum/NanumMyeongjo.ttf
p1148
sg20
g21
sbag1
(g8
g3
NtRp1149
(dp1150
g11
g12
sg13
VSTIXGeneral
p1151
sg15
I700
sg16
g12
sg17
g12
sg18
V/usr/share/fonts/opentype/stix/STIXGeneral-Bold.otf
p1152
sg20
g21
sbag1
(g8
g3
NtRp1153
(dp1154
g11
g12
sg13
VLoma
p1155
sg15
I700
sg16
g12
sg17
g12
sg18
V/usr/share/fonts/truetype/tlwg/Loma-Bold.ttf
p1156
sg20
g21
sbag1
(g8
g3
NtRp1157
(dp1158
g11
g12
sg13
VKacstPen
p1159
sg15
I400
sg16
g12
sg17
g12
sg18
V/usr/share/fonts/truetype/kacst/KacstPen.ttf
p1160
sg20
g21
sbag1
(g8
g3
NtRp1161
(dp1162
g11
g12
sg13
VSTIXSizeFourSym
p1163
sg15
I400
sg16
g12
sg17
g12
sg18
V/usr/share/fonts/opentype/stix/STIXSizeFourSym-Regular.otf
p1164
sg20
g21
sbag1
(g8
g3
NtRp1165
(dp1166
g11
g28
sg13
VFreeSerif
p1167
sg15
I400
sg16
g12
sg17
g12
sg18
V/usr/share/fonts/truetype/freefont/FreeSerifItalic.ttf
p1168
sg20
g21
sbag1
(g8
g3
NtRp1169
(dp1170
g11
g12
sg13
VLatin Modern Roman Slanted
p1171
sg15
I700
sg16
g12
sg17
g12
sg18
V/usr/share/texmf/fonts/opentype/public/lm/lmromanslant10-bold.otf
p1172
sg20
g21
sbag1
(g8
g3
NtRp1173
(dp1174
g11
g145
sg13
VLatin Modern Roman Caps
p1175
sg15
I500
sg16
g12
sg17
g12
sg18
V/usr/share/texmf/fonts/opentype/public/lm/lmromancaps10-oblique.otf
p1176
sg20
g21
sbag1
(g8
g3
NtRp1177
(dp1178
g11
g28
sg13
VTeX Gyre Adventor
p1179
sg15
I400
sg16
g12
sg17
g12
sg18
V/usr/share/texmf/fonts/opentype/public/tex-gyre/texgyreadventor-italic.otf
p1180
sg20
g21
sbag1
(g8
g3
NtRp1181
(dp1182
g11
g28
sg13
VTeX Gyre Cursor
p1183
sg15
I400
sg16
g12
sg17
g12
sg18
V/usr/share/texmf/fonts/opentype/public/tex-gyre/texgyrecursor-italic.otf
p1184
sg20
g21
sbag1
(g8
g3
NtRp1185
(dp1186
g11
g12
sg13
VLatin Modern Roman
p1187
sg15
I400
sg16
g12
sg17
g12
sg18
V/usr/share/texmf/fonts/opentype/public/lm/lmroman6-regular.otf
p1188
sg20
g21
sbag1
(g8
g3
NtRp1189
(dp1190
g11
g12
sg13
VBitstream Vera Sans
p1191
sg15
I400
sg16
g12
sg17
g12
sg18
V/usr/share/fonts/truetype/ttf-bitstream-vera/Vera.ttf
p1192
sg20
g21
sbag1
(g8
g3
NtRp1193
(dp1194
g11
g28
sg13
VDejaVu Serif
p1195
sg15
I700
sg16
g199
sg17
g12
sg18
V/usr/share/fonts/truetype/dejavu/DejaVuSerifCondensed-BoldItalic.ttf
p1196
sg20
g21
sbag1
(g8
g3
NtRp1197
(dp1198
g11
g12
sg13
VSTIXIntegralsUpSm
p1199
sg15
I400
sg16
g12
sg17
g12
sg18
V/usr/share/fonts/opentype/stix/STIXIntegralsUpSm-Regular.otf
p1200
sg20
g21
sbag1
(g8
g3
NtRp1201
(dp1202
g11
g145
sg13
VLatin Modern Mono Light
p1203
sg15
I200
sg16
g12
sg17
g12
sg18
V/usr/share/texmf/fonts/opentype/public/lm/lmmonolt10-oblique.otf
p1204
sg20
g21
sbag1
(g8
g3
NtRp1205
(dp1206
g11
g145
sg13
VUmpush
p1207
sg15
I200
sg16
g12
sg17
g12
sg18
V/usr/share/fonts/truetype/tlwg/Umpush-LightOblique.ttf
p1208
sg20
g21
sbag1
(g8
g3
NtRp1209
(dp1210
g11
g12
sg13
VTlwg Typo
p1211
sg15
I400
sg16
g12
sg17
g12
sg18
V/usr/share/fonts/truetype/tlwg/TlwgTypo.ttf
p1212
sg20
g21
sbag1
(g8
g3
NtRp1213
(dp1214
g11
g28
sg13
VLato
p1215
sg15
I400
sg16
g12
sg17
g12
sg18
V/usr/share/fonts/truetype/lato/Lato-Italic.ttf
p1216
sg20
g21
sbag1
(g8
g3
NtRp1217
(dp1218
g11
g145
sg13
VFreeSans
p1219
sg15
I400
sg16
g12
sg17
g12
sg18
V/usr/share/fonts/truetype/freefont/FreeSansOblique.ttf
p1220
sg20
g21
sbag1
(g8
g3
NtRp1221
(dp1222
g11
g145
sg13
VLatin Modern Roman Dunhill
p1223
sg15
I500
sg16
g12
sg17
g12
sg18
V/usr/share/texmf/fonts/opentype/public/lm/lmromandunh10-oblique.otf
p1224
sg20
g21
sbag1
(g8
g3
NtRp1225
(dp1226
g11
g12
sg13
VLiberation Sans
p1227
sg15
I700
sg16
g12
sg17
g12
sg18
V/usr/share/fonts/truetype/liberation/LiberationSans-Bold.ttf
p1228
sg20
g21
sbag1
(g8
g3
NtRp1229
(dp1230
g11
g12
sg13
VLiberation Mono
p1231
sg15
I400
sg16
g12
sg17
g12
sg18
V/usr/share/fonts/truetype/liberation/LiberationMono-Regular.ttf
p1232
sg20
g21
sbag1
(g8
g3
NtRp1233
(dp1234
g11
g28
sg13
VTeX Gyre Bonum
p1235
sg15
I400
sg16
g12
sg17
g12
sg18
V/usr/share/texmf/fonts/opentype/public/tex-gyre/texgyrebonum-italic.otf
p1236
sg20
g21
sbag1
(g8
g3
NtRp1237
(dp1238
g11
g12
sg13
VSTIXVariants
p1239
sg15
I400
sg16
g12
sg17
g12
sg18
V/usr/share/fonts/opentype/stix/STIXVariants-Regular.otf
p1240
sg20
g21
sbag1
(g8
g3
NtRp1241
(dp1242
g11
g12
sg13
VLatin Modern Sans
p1243
sg15
I400
sg16
g12
sg17
g12
sg18
V/usr/share/texmf/fonts/opentype/public/lm/lmsans10-regular.otf
p1244
sg20
g21
sbag1
(g8
g3
NtRp1245
(dp1246
g11
g28
sg13
Vrsfs10
p1247
sg15
I400
sg16
g12
sg17
g12
sg18
V/usr/share/fonts/truetype/lyx/rsfs10.ttf
p1248
sg20
g21
sbag1
(g8
g3
NtRp1249
(dp1250
g11
g12
sg13
VGaruda
p1251
sg15
I400
sg16
g12
sg17
g12
sg18
V/usr/share/fonts/truetype/tlwg/Garuda.ttf
p1252
sg20
g21
sbag1
(g8
g3
NtRp1253
(dp1254
g11
g12
sg13
Vmry_KacstQurn
p1255
sg15
I400
sg16
g12
sg17
g12
sg18
V/usr/share/fonts/truetype/kacst/mry_KacstQurn.ttf
p1256
sg20
g21
sbag1
(g8
g3
NtRp1257
(dp1258
g11
g145
sg13
VLatin Modern Sans
p1259
sg15
I400
sg16
g12
sg17
g12
sg18
V/usr/share/texmf/fonts/opentype/public/lm/lmsans10-oblique.otf
p1260
sg20
g21
sbag1
(g8
g3
NtRp1261
(dp1262
g11
g12
sg13
VTibetan Machine Uni
p1263
sg15
I400
sg16
g12
sg17
g12
sg18
V/usr/share/fonts/truetype/tibetan-machine/TibetanMachineUni.ttf
p1264
sg20
g21
sbag1
(g8
g3
NtRp1265
(dp1266
g11
g12
sg13
VLohit Punjabi
p1267
sg15
I400
sg16
g12
sg17
g12
sg18
V/usr/share/fonts/truetype/lohit-punjabi/Lohit-Punjabi.ttf
p1268
sg20
g21
sbag1
(g8
g3
NtRp1269
(dp1270
g11
g12
sg13
VLatin Modern Sans Quotation
p1271
sg15
I400
sg16
g12
sg17
g12
sg18
V/usr/share/texmf/fonts/opentype/public/lm/lmsansquot8-regular.otf
p1272
sg20
g21
sbag1
(g8
g3
NtRp1273
(dp1274
g11
g12
sg13
VKacstOne
p1275
sg15
I700
sg16
g12
sg17
g12
sg18
V/usr/share/fonts/truetype/kacst-one/KacstOne-Bold.ttf
p1276
sg20
g21
sbag1
(g8
g3
NtRp1277
(dp1278
g11
g12
sg13
VLatin Modern Sans
p1279
sg15
I400
sg16
g12
sg17
g12
sg18
V/usr/share/texmf/fonts/opentype/public/lm/lmsans8-regular.otf
p1280
sg20
g21
sbag1
(g8
g3
NtRp1281
(dp1282
g11
g12
sg13
VLatin Modern Roman
p1283
sg15
I400
sg16
g12
sg17
g12
sg18
V/usr/share/texmf/fonts/opentype/public/lm/lmroman10-regular.otf
p1284
sg20
g21
sbag1
(g8
g3
NtRp1285
(dp1286
g11
g12
sg13
Veufm10
p1287
sg15
I400
sg16
g12
sg17
g12
sg18
V/usr/share/fonts/truetype/lyx/eufm10.ttf
p1288
sg20
g21
sbag1
(g8
g3
NtRp1289
(dp1290
g11
g12
sg13
Vesint10
p1291
sg15
I400
sg16
g12
sg17
g12
sg18
V/usr/share/fonts/truetype/lyx/esint10.ttf
p1292
sg20
g21
sbag1
(g8
g3
NtRp1293
(dp1294
g11
g12
sg13
VLatin Modern Roman
p1295
sg15
I400
sg16
g12
sg17
g12
sg18
V/usr/share/texmf/fonts/opentype/public/lm/lmroman17-regular.otf
p1296
sg20
g21
sbag1
(g8
g3
NtRp1297
(dp1298
g11
g12
sg13
VSTIXIntegralsUpD
p1299
sg15
I400
sg16
g12
sg17
g12
sg18
V/usr/share/fonts/opentype/stix/STIXIntegralsUpD-Regular.otf
p1300
sg20
g21
sbag1
(g8
g3
NtRp1301
(dp1302
g11
g12
sg13
VTeX Gyre Schola
p1303
sg15
I400
sg16
g12
sg17
g12
sg18
V/usr/share/texmf/fonts/opentype/public/tex-gyre/texgyreschola-regular.otf
p1304
sg20
g21
sbag1
(g8
g3
NtRp1305
(dp1306
g11
g12
sg13
VLaksaman
p1307
sg15
I700
sg16
g12
sg17
g12
sg18
V/usr/share/fonts/truetype/tlwg/Laksaman-Bold.ttf
p1308
sg20
g21
sbag1
(g8
g3
NtRp1309
(dp1310
g11
g145
sg13
VLatin Modern Roman Demi
p1311
sg15
I600
sg16
g12
sg17
g12
sg18
V/usr/share/texmf/fonts/opentype/public/lm/lmromandemi10-oblique.otf
p1312
sg20
g21
sbag1
(g8
g3
NtRp1313
(dp1314
g11
g12
sg13
VLato
p1315
sg15
I800
sg16
g12
sg17
g12
sg18
V/usr/share/fonts/truetype/lato/Lato-Heavy.ttf
p1316
sg20
g21
sbag1
(g8
g3
NtRp1317
(dp1318
g11
g12
sg13
VTlwg Mono
p1319
sg15
I700
sg16
g12
sg17
g12
sg18
V/usr/share/fonts/truetype/tlwg/TlwgMono-Bold.ttf
p1320
sg20
g21
sbag1
(g8
g3
NtRp1321
(dp1322
g11
g12
sg13
VLatin Modern Mono Light
p1323
sg15
I400
sg16
g12
sg17
g12
sg18
V/usr/share/texmf/fonts/opentype/public/lm/lmmonolt10-regular.otf
p1324
sg20
g21
sbag1
(g8
g3
NtRp1325
(dp1326
g11
g12
sg13
VLatin Modern Sans Demi Cond
p1327
sg15
I600
sg16
g199
sg17
g12
sg18
V/usr/share/texmf/fonts/opentype/public/lm/lmsansdemicond10-regular.otf
p1328
sg20
g21
sbag1
(g8
g3
NtRp1329
(dp1330
g11
g145
sg13
VLatin Modern Mono Prop Light
p1331
sg15
I200
sg16
g12
sg17
g12
sg18
V/usr/share/texmf/fonts/opentype/public/lm/lmmonoproplt10-oblique.otf
p1332
sg20
g21
sbag1
(g8
g3
NtRp1333
(dp1334
g11
g12
sg13
VLatin Modern Roman
p1335
sg15
I700
sg16
g12
sg17
g12
sg18
V/usr/share/texmf/fonts/opentype/public/lm/lmroman5-bold.otf
p1336
sg20
g21
sbag1
(g8
g3
NtRp1337
(dp1338
g11
g12
sg13
VPadauk
p1339
sg15
I700
sg16
g12
sg17
g12
sg18
V/usr/share/fonts/truetype/padauk/Padauk-bold.ttf
p1340
sg20
g21
sbag1
(g8
g3
NtRp1341
(dp1342
g11
g28
sg13
VLaksaman
p1343
sg15
I400
sg16
g12
sg17
g12
sg18
V/usr/share/fonts/truetype/tlwg/Laksaman-Italic.ttf
p1344
sg20
g21
sbag1
(g8
g3
NtRp1345
(dp1346
g11
g12
sg13
VOpenSymbol
p1347
sg15
I400
sg16
g12
sg17
g12
sg18
V/usr/share/fonts/truetype/openoffice/opens___.ttf
p1348
sg20
g21
sbag1
(g8
g3
NtRp1349
(dp1350
g11
g12
sg13
VLatin Modern Roman Slanted
p1351
sg15
I400
sg16
g12
sg17
g12
sg18
V/usr/share/texmf/fonts/opentype/public/lm/lmromanslant8-regular.otf
p1352
sg20
g21
sbag1
(g8
g3
NtRp1353
(dp1354
g11
g145
sg13
VUmpush
p1355
sg15
I700
sg16
g12
sg17
g12
sg18
V/usr/share/fonts/truetype/tlwg/Umpush-BoldOblique.ttf
p1356
sg20
g21
sbag1
(g8
g3
NtRp1357
(dp1358
g11
g12
sg13
VTlwg Typo
p1359
sg15
I700
sg16
g12
sg17
g12
sg18
V/usr/share/fonts/truetype/tlwg/TlwgTypo-Bold.ttf
p1360
sg20
g21
sbag1
(g8
g3
NtRp1361
(dp1362
g11
g12
sg13
VTlwg Typewriter
p1363
sg15
I700
sg16
g12
sg17
g12
sg18
V/usr/share/fonts/truetype/tlwg/TlwgTypewriter-Bold.ttf
p1364
sg20
g21
sbag1
(g8
g3
NtRp1365
(dp1366
g11
g145
sg13
VWaree
p1367
sg15
I700
sg16
g12
sg17
g12
sg18
V/usr/share/fonts/truetype/tlwg/Waree-BoldOblique.ttf
p1368
sg20
g21
sbag1
(g8
g3
NtRp1369
(dp1370
g11
g12
sg13
VSTIXNonUnicode
p1371
sg15
I700
sg16
g12
sg17
g12
sg18
V/usr/share/fonts/opentype/stix/STIXNonUnicode-Bold.otf
p1372
sg20
g21
sbag1
(g8
g3
NtRp1373
(dp1374
g11
g28
sg13
VFreeSerif
p1375
sg15
I700
sg16
g12
sg17
g12
sg18
V/usr/share/fonts/truetype/freefont/FreeSerifBoldItalic.ttf
p1376
sg20
g21
sbag1
(g8
g3
NtRp1377
(dp1378
g11
g12
sg13
VLato
p1379
sg15
I200
sg16
g12
sg17
g12
sg18
V/usr/share/fonts/truetype/lato/Lato-Light.ttf
p1380
sg20
g21
sbag1
(g8
g3
NtRp1381
(dp1382
g11
g145
sg13
VLatin Modern Mono Caps
p1383
sg15
I400
sg16
g12
sg17
g12
sg18
V/usr/share/texmf/fonts/opentype/public/lm/lmmonocaps10-oblique.otf
p1384
sg20
g21
sbag1
(g8
g3
NtRp1385
(dp1386
g11
g12
sg13
VSTIXSizeThreeSym
p1387
sg15
I700
sg16
g12
sg17
g12
sg18
V/usr/share/fonts/opentype/stix/STIXSizeThreeSym-Bold.otf
p1388
sg20
g21
sbag1
(g8
g3
NtRp1389
(dp1390
g11
g28
sg13
VSTIX
p1391
sg15
I700
sg16
g12
sg17
g12
sg18
V/usr/share/fonts/opentype/stix-word/STIX-BoldItalic.otf
p1392
sg20
g21
sbag1
(g8
g3
NtRp1393
(dp1394
g11
g12
sg13
VTeX Gyre Termes Math
p1395
sg15
I400
sg16
g12
sg17
g12
sg18
V/usr/share/texmf/fonts/opentype/public/tex-gyre-math/texgyretermes-math.otf
p1396
sg20
g21
sbag1
(g8
g3
NtRp1397
(dp1398
g11
g145
sg13
VTlwg Typo
p1399
sg15
I400
sg16
g12
sg17
g12
sg18
V/usr/share/fonts/truetype/tlwg/TlwgTypo-Oblique.ttf
p1400
sg20
g21
sbag1
(g8
g3
NtRp1401
(dp1402
g11
g145
sg13
VTlwg Typist
p1403
sg15
I400
sg16
g12
sg17
g12
sg18
V/usr/share/fonts/truetype/tlwg/TlwgTypist-Oblique.ttf
p1404
sg20
g21
sbag1
(g8
g3
NtRp1405
(dp1406
g11
g12
sg13
VSymbola
p1407
sg15
I400
sg16
g12
sg17
g12
sg18
V/usr/share/fonts/truetype/ancient-scripts/Symbola_hint.ttf
p1408
sg20
g21
sbag1
(g8
g3
NtRp1409
(dp1410
g11
g28
sg13
VUbuntu
p1411
sg15
I500
sg16
g12
sg17
g12
sg18
V/usr/share/fonts/truetype/ubuntu-font-family/Ubuntu-MI.ttf
p1412
sg20
g21
sbag1
(g8
g3
NtRp1413
(dp1414
g11
g12
sg13
VLatin Modern Roman Unslanted
p1415
sg15
I400
sg16
g12
sg17
g12
sg18
V/usr/share/texmf/fonts/opentype/public/lm/lmromanunsl10-regular.otf
p1416
sg20
g21
sbag1
(g8
g3
NtRp1417
(dp1418
g11
g145
sg13
VLatin Modern Sans
p1419
sg15
I400
sg16
g12
sg17
g12
sg18
V/usr/share/texmf/fonts/opentype/public/lm/lmsans9-oblique.otf
p1420
sg20
g21
sbag1
(g8
g3
NtRp1421
(dp1422
g11
g28
sg13
VLato
p1423
sg15
I700
sg16
g12
sg17
g12
sg18
V/usr/share/fonts/truetype/lato/Lato-SemiboldItalic.ttf
p1424
sg20
g21
sbag1
(g8
g3
NtRp1425
(dp1426
g11
g12
sg13
VTeX Gyre Bonum
p1427
sg15
I400
sg16
g12
sg17
g12
sg18
V/usr/share/texmf/fonts/opentype/public/tex-gyre/texgyrebonum-regular.otf
p1428
sg20
g21
sbag1
(g8
g3
NtRp1429
(dp1430
g11
g12
sg13
VPadauk Book
p1431
sg15
I400
sg16
g12
sg17
g12
sg18
V/usr/share/fonts/truetype/padauk/Padauk-book.ttf
p1432
sg20
g21
sbag1
(g8
g3
NtRp1433
(dp1434
g11
g12
sg13
VKacstDigital
p1435
sg15
I400
sg16
g12
sg17
g12
sg18
V/usr/share/fonts/truetype/kacst/KacstDigital.ttf
p1436
sg20
g21
sbag1
(g8
g3
NtRp1437
(dp1438
g11
g12
sg13
VKacstOffice
p1439
sg15
I400
sg16
g12
sg17
g12
sg18
V/usr/share/fonts/truetype/kacst/KacstOffice.ttf
p1440
sg20
g21
sbag1
(g8
g3
NtRp1441
(dp1442
g11
g12
sg13
VAbyssinica SIL
p1443
sg15
I400
sg16
g12
sg17
g12
sg18
V/usr/share/fonts/truetype/abyssinica/AbyssinicaSIL-R.ttf
p1444
sg20
g21
sbag1
(g8
g3
NtRp1445
(dp1446
g11
g12
sg13
VSTIXIntegralsUpD
p1447
sg15
I700
sg16
g12
sg17
g12
sg18
V/usr/share/fonts/opentype/stix/STIXIntegralsUpD-Bold.otf
p1448
sg20
g21
sbag1
(g8
g3
NtRp1449
(dp1450
g11
g12
sg13
VLoma
p1451
sg15
I400
sg16
g12
sg17
g12
sg18
V/usr/share/fonts/truetype/tlwg/Loma.ttf
p1452
sg20
g21
sbag1
(g8
g3
NtRp1453
(dp1454
g11
g145
sg13
VGaruda
p1455
sg15
I400
sg16
g12
sg17
g12
sg18
V/usr/share/fonts/truetype/tlwg/Garuda-Oblique.ttf
p1456
sg20
g21
sbag1
(g8
g3
NtRp1457
(dp1458
g11
g145
sg13
VLatin Modern Sans
p1459
sg15
I400
sg16
g12
sg17
g12
sg18
V/usr/share/texmf/fonts/opentype/public/lm/lmsans17-oblique.otf
p1460
sg20
g21
sbag1
(g8
g3
NtRp1461
(dp1462
g11
g145
sg13
VTlwg Typo
p1463
sg15
I700
sg16
g12
sg17
g12
sg18
V/usr/share/fonts/truetype/tlwg/TlwgTypo-BoldOblique.ttf
p1464
sg20
g21
sbag1
(g8
g3
NtRp1465
(dp1466
g11
g12
sg13
VKacstTitleL
p1467
sg15
I400
sg16
g12
sg17
g12
sg18
V/usr/share/fonts/truetype/kacst/KacstTitleL.ttf
p1468
sg20
g21
sbasS'defaultFamily'
p1469
(dp1470
Vafm
p1471
VHelvetica
p1472
sVttf
p1473
VBitstream Vera Sans
p1474
ssS'ttffiles'
p1475
(lp1476
g19
ag25
ag30
ag34
ag38
ag42
ag46
ag50
ag54
ag58
ag62
ag66
ag70
ag74
ag78
ag82
ag86
ag90
ag94
ag98
ag102
ag106
ag110
ag114
ag118
ag122
ag126
ag130
ag134
ag138
ag142
ag147
ag151
ag155
ag159
ag163
ag167
ag171
ag175
aV/usr/share/fonts/truetype/lyx/cmmi10.ttf
p1477
ag179
ag183
ag187
ag191
ag195
ag200
ag204
ag208
ag212
ag216
ag220
ag224
ag228
ag232
ag236
ag240
ag244
ag248
ag252
ag256
ag260
ag264
ag268
ag272
ag276
ag280
ag284
ag288
ag292
ag296
ag300
ag304
ag308
ag312
ag316
ag320
ag324
ag328
ag332
ag336
ag340
ag344
ag348
aV/usr/share/fonts/truetype/lyx/cmsy10.ttf
p1478
ag352
ag356
ag360
ag364
ag368
ag372
ag376
ag380
ag384
ag388
ag392
ag396
ag400
ag404
aV/usr/share/fonts/truetype/liberation/LiberationSerif-Regular.ttf
p1479
ag408
ag412
ag416
ag420
ag424
ag428
ag432
ag436
ag440
ag444
ag448
ag452
ag456
ag460
ag464
ag468
ag472
ag476
ag480
ag484
ag488
ag492
aV/usr/share/fonts/truetype/ttf-liberation/LiberationSans-Italic.ttf
p1480
ag496
ag500
ag504
ag508
ag512
ag516
ag520
ag524
ag528
ag532
ag536
ag540
ag544
ag548
ag552
ag556
ag560
aV/usr/share/fonts/truetype/liberation/LiberationSerif-Bold.ttf
p1481
ag564
ag568
ag572
ag576
ag580
ag584
ag588
ag592
ag596
ag600
ag604
ag608
ag612
ag616
ag620
ag624
ag628
ag632
ag636
ag640
ag644
ag648
ag652
ag656
ag660
ag664
ag668
ag672
ag676
ag680
ag684
ag688
ag692
ag696
ag700
ag704
ag708
ag712
ag716
ag720
ag724
ag728
ag732
ag736
ag740
ag744
ag748
ag752
ag756
ag760
ag764
ag768
ag772
ag776
ag780
ag784
ag788
ag792
ag796
ag800
ag804
ag808
ag812
ag816
ag820
ag824
ag828
ag832
ag836
ag840
ag844
ag848
ag852
ag856
ag860
ag864
ag868
ag872
ag876
ag880
ag884
ag888
ag892
ag896
ag900
ag904
ag908
ag912
ag916
ag920
ag924
ag928
ag932
ag936
ag940
ag944
ag948
ag952
ag956
ag960
ag964
ag968
ag972
ag976
aV/usr/share/fonts/truetype/ttf-liberation/LiberationSans-BoldItalic.ttf
p1482
ag980
ag984
ag988
ag992
ag996
ag1000
aV/usr/share/fonts/truetype/ttf-dejavu/DejaVuSans-Bold.ttf
p1483
ag1004
ag1008
ag1012
ag1016
ag1020
ag1024
ag1028
ag1032
ag1036
ag1040
ag1044
ag1048
ag1052
ag1056
ag1060
ag1064
ag1068
ag1072
ag1076
ag1080
ag1084
ag1088
ag1092
aV/usr/share/fonts/truetype/liberation/LiberationSans-Regular.ttf
p1484
ag1096
ag1100
ag1104
ag1108
ag1112
ag1116
aV/usr/share/fonts/truetype/dejavu/DejaVuSerif-Bold.ttf
p1485
ag1120
ag1124
ag1128
ag1132
aV/usr/share/fonts/truetype/ttf-liberation/LiberationSerif-BoldItalic.ttf
p1486
ag1136
aV/usr/share/fonts/truetype/lyx/cmex10.ttf
p1487
ag1140
ag1144
ag1148
ag1152
ag1156
ag1160
ag1164
ag1168
ag1172
ag1176
ag1180
aV/usr/share/fonts/truetype/liberation/LiberationSansNarrow-Italic.ttf
p1488
aV/usr/share/fonts/truetype/lyx/cmr10.ttf
p1489
ag1184
ag1188
ag1192
ag1196
ag1200
aV/usr/share/fonts/truetype/ttf-liberation/LiberationMono-Bold.ttf
p1490
aV/usr/share/fonts/truetype/liberation/LiberationSansNarrow-Regular.ttf
p1491
ag1204
ag1208
ag1212
aV/usr/share/fonts/truetype/ttf-liberation/LiberationMono-Italic.ttf
p1492
ag1216
aV/usr/share/fonts/truetype/ttf-dejavu/DejaVuSerif.ttf
p1493
ag1220
ag1224
ag1228
ag1232
ag1236
ag1240
ag1244
ag1248
ag1252
ag1256
ag1260
ag1264
ag1268
ag1272
ag1276
ag1280
ag1284
ag1288
ag1292
ag1296
ag1300
aV/usr/share/fonts/truetype/ttf-liberation/LiberationSansNarrow-BoldItalic.ttf
p1494
ag1304
ag1308
ag1312
ag1316
aV/usr/share/fonts/truetype/ttf-dejavu/DejaVuSans.ttf
p1495
ag1320
ag1324
ag1328
ag1332
ag1336
ag1340
aV/usr/share/fonts/truetype/dejavu/DejaVuSansMono.ttf
p1496
ag1344
ag1348
ag1352
ag1356
ag1360
aV/usr/share/fonts/truetype/liberation/LiberationSerif-Italic.ttf
p1497
ag1364
ag1368
ag1372
aV/usr/share/fonts/truetype/ttf-dejavu/DejaVuSansMono-Bold.ttf
p1498
ag1376
ag1380
ag1384
ag1388
ag1392
aV/usr/share/fonts/truetype/ttf-liberation/LiberationSansNarrow-Bold.ttf
p1499
ag1396
ag1400
ag1404
ag1408
ag1412
ag1416
ag1420
aV/usr/share/fonts/truetype/ttf-liberation/LiberationSans-Bold.ttf
p1500
aV/usr/share/fonts/truetype/ttf-liberation/LiberationMono-Regular.ttf
p1501
ag1424
ag1428
ag1432
ag1436
aV/usr/share/fonts/truetype/ttf-liberation/LiberationMono-BoldItalic.ttf
p1502
ag1440
ag1444
ag1448
ag1452
ag1456
ag1460
ag1464
ag1468
asS'_FontManager__default_weight'
p1503
Vnormal
p1504
sS'_version'
p1505
I101
sS'default_size'
p1506
NsS'defaultFont'
p1507
(dp1508
g1471
V/usr/share/matplotlib/mpl-data/fonts/afm/pzcmi8a.afm
p1509
sg1473
g1192
ssS'afmfiles'
p1510
(lp1511
g1509
aV/usr/share/matplotlib/mpl-data/fonts/pdfcorefonts/Helvetica.afm
p1512
aV/usr/share/matplotlib/mpl-data/fonts/afm/phvl8a.afm
p1513
aV/usr/share/matplotlib/mpl-data/fonts/afm/putbi8a.afm
p1514
aV/usr/share/matplotlib/mpl-data/fonts/pdfcorefonts/Helvetica-BoldOblique.afm
p1515
aV/usr/share/matplotlib/mpl-data/fonts/afm/phvro8an.afm
p1516
aV/usr/share/matplotlib/mpl-data/fonts/afm/pbkd8a.afm
p1517
aV/usr/share/matplotlib/mpl-data/fonts/afm/pcrbo8a.afm
p1518
aV/usr/share/matplotlib/mpl-data/fonts/pdfcorefonts/Helvetica-Bold.afm
p1519
aV/usr/share/matplotlib/mpl-data/fonts/pdfcorefonts/Times-BoldItalic.afm
p1520
aV/usr/share/matplotlib/mpl-data/fonts/afm/pcrb8a.afm
p1521
aV/usr/share/matplotlib/mpl-data/fonts/afm/phvr8a.afm
p1522
aV/usr/share/matplotlib/mpl-data/fonts/afm/pcrr8a.afm
p1523
aV/usr/share/matplotlib/mpl-data/fonts/afm/pncri8a.afm
p1524
aV/usr/share/matplotlib/mpl-data/fonts/afm/pncb8a.afm
p1525
aV/usr/share/matplotlib/mpl-data/fonts/pdfcorefonts/Courier-Bold.afm
p1526
aV/usr/share/matplotlib/mpl-data/fonts/afm/pcrro8a.afm
p1527
aV/usr/share/matplotlib/mpl-data/fonts/afm/cmex10.afm
p1528
aV/usr/share/matplotlib/mpl-data/fonts/afm/cmtt10.afm
p1529
aV/usr/share/matplotlib/mpl-data/fonts/pdfcorefonts/Symbol.afm
p1530
aV/usr/share/matplotlib/mpl-data/fonts/afm/phvr8an.afm
p1531
aV/usr/share/matplotlib/mpl-data/fonts/afm/phvro8a.afm
p1532
aV/usr/share/matplotlib/mpl-data/fonts/afm/ptmr8a.afm
p1533
aV/usr/share/matplotlib/mpl-data/fonts/pdfcorefonts/Helvetica-Oblique.afm
p1534
aV/usr/share/matplotlib/mpl-data/fonts/afm/pplbi8a.afm
p1535
aV/usr/share/matplotlib/mpl-data/fonts/afm/cmsy10.afm
p1536
aV/usr/share/matplotlib/mpl-data/fonts/afm/pagk8a.afm
p1537
aV/usr/share/matplotlib/mpl-data/fonts/pdfcorefonts/Courier-BoldOblique.afm
p1538
aV/usr/share/matplotlib/mpl-data/fonts/afm/putb8a.afm
p1539
aV/usr/share/matplotlib/mpl-data/fonts/afm/cmmi10.afm
p1540
aV/usr/share/matplotlib/mpl-data/fonts/afm/pagko8a.afm
p1541
aV/usr/share/matplotlib/mpl-data/fonts/afm/pbkdi8a.afm
p1542
aV/usr/share/matplotlib/mpl-data/fonts/afm/phvbo8a.afm
p1543
aV/usr/share/matplotlib/mpl-data/fonts/afm/cmr10.afm
p1544
aV/usr/share/matplotlib/mpl-data/fonts/pdfcorefonts/Times-Bold.afm
p1545
aV/usr/share/matplotlib/mpl-data/fonts/afm/pagdo8a.afm
p1546
aV/usr/share/matplotlib/mpl-data/fonts/afm/psyr.afm
p1547
aV/usr/share/matplotlib/mpl-data/fonts/afm/phvlo8a.afm
p1548
aV/usr/share/matplotlib/mpl-data/fonts/afm/phvb8a.afm
p1549
aV/usr/share/matplotlib/mpl-data/fonts/afm/pplb8a.afm
p1550
aV/usr/share/matplotlib/mpl-data/fonts/afm/pzdr.afm
p1551
aV/usr/share/matplotlib/mpl-data/fonts/afm/ptmri8a.afm
p1552
aV/usr/share/matplotlib/mpl-data/fonts/afm/pplr8a.afm
p1553
aV/usr/share/matplotlib/mpl-data/fonts/afm/pbkl8a.afm
p1554
aV/usr/share/matplotlib/mpl-data/fonts/afm/pncbi8a.afm
p1555
aV/usr/share/matplotlib/mpl-data/fonts/pdfcorefonts/ZapfDingbats.afm
p1556
aV/usr/share/matplotlib/mpl-data/fonts/afm/ptmb8a.afm
p1557
aV/usr/share/matplotlib/mpl-data/fonts/afm/putri8a.afm
p1558
aV/usr/share/matplotlib/mpl-data/fonts/afm/pplri8a.afm
p1559
aV/usr/share/matplotlib/mpl-data/fonts/afm/ptmbi8a.afm
p1560
aV/usr/share/matplotlib/mpl-data/fonts/afm/pbkli8a.afm
p1561
aV/usr/share/matplotlib/mpl-data/fonts/pdfcorefonts/Courier-Oblique.afm
p1562
aV/usr/share/matplotlib/mpl-data/fonts/afm/putr8a.afm
p1563
aV/usr/share/matplotlib/mpl-data/fonts/afm/pagd8a.afm
p1564
aV/usr/share/matplotlib/mpl-data/fonts/afm/pncr8a.afm
p1565
aV/usr/share/matplotlib/mpl-data/fonts/pdfcorefonts/Times-Italic.afm
p1566
aV/usr/share/matplotlib/mpl-data/fonts/pdfcorefonts/Times-Roman.afm
p1567
aV/usr/share/matplotlib/mpl-data/fonts/afm/phvbo8an.afm
p1568
aV/usr/share/matplotlib/mpl-data/fonts/pdfcorefonts/Courier.afm
p1569
aV/usr/share/matplotlib/mpl-data/fonts/afm/phvb8an.afm
p1570
aV/usr/share/fonts/X11/Type1/lmtt10.afm
p1571
aV/usr/share/fonts/type1/gsfonts/p052004l.afm
p1572
aV/usr/share/fonts/X11/Type1/lmssqo8.afm
p1573
aV/usr/share/fonts/type1/gsfonts/b018015l.afm
p1574
aV/usr/share/fonts/X11/Type1/lmbxo10.afm
p1575
aV/usr/share/fonts/type1/texlive-fonts-recommended/pcrro8a.afm
p1576
aV/usr/share/fonts/type1/gsfonts/n022024l.afm
p1577
aV/usr/share/fonts/X11/Type1/lmtlc10.afm
p1578
aV/usr/share/fonts/X11/Type1/lmtk10.afm
p1579
aV/usr/share/fonts/X11/Type1/qbkr.afm
p1580
aV/usr/share/fonts/X11/Type1/lmdunh10.afm
p1581
aV/usr/share/fonts/type1/gsfonts/n019003l.afm
p1582
aV/usr/share/fonts/X11/Type1/qcsri.afm
p1583
aV/usr/share/fonts/X11/Type1/lmtti10.afm
p1584
aV/usr/share/fonts/X11/Type1/qcrr.afm
p1585
aV/usr/share/fonts/type1/gsfonts/c059036l.afm
p1586
aV/usr/share/fonts/X11/Type1/qtmb.afm
p1587
aV/usr/share/fonts/X11/Type1/qhvcb.afm
p1588
aV/usr/share/fonts/type1/texlive-fonts-recommended/putri8a.afm
p1589
aV/usr/share/fonts/X11/Type1/lmvtlo10.afm
p1590
aV/usr/share/fonts/X11/Type1/lmtcso10.afm
p1591
aV/usr/share/fonts/type1/gsfonts/c059013l.afm
p1592
aV/usr/share/fonts/X11/Type1/c0419bt_.afm
p1593
aV/usr/share/fonts/type1/gsfonts/n021024l.afm
p1594
aV/usr/share/fonts/type1/gsfonts/n019024l.afm
p1595
aV/usr/share/fonts/X11/Type1/qhvbi.afm
p1596
aV/usr/share/fonts/X11/Type1/qcsb.afm
p1597
aV/usr/share/fonts/X11/Type1/lmbx10.afm
p1598
aV/usr/share/fonts/type1/gsfonts/d050000l.afm
p1599
aV/usr/share/fonts/X11/Type1/lmssdo10.afm
p1600
aV/usr/share/fonts/X11/Type1/lmssqbx8.afm
p1601
aV/usr/share/fonts/X11/Type1/qhvb.afm
p1602
aV/usr/share/fonts/X11/Type1/lmb10.afm
p1603
aV/usr/share/fonts/type1/gsfonts/n019044l.afm
p1604
aV/usr/share/fonts/type1/gsfonts/z003034l.afm
p1605
aV/usr/share/fonts/X11/Type1/qhvr.afm
p1606
aV/usr/share/fonts/X11/Type1/lmbxi10.afm
p1607
aV/usr/share/fonts/X11/Type1/lmcsco10.afm
p1608
aV/usr/share/fonts/type1/texlive-fonts-recommended/putr8a.afm
p1609
aV/usr/share/fonts/type1/gsfonts/b018012l.afm
p1610
aV/usr/share/fonts/X11/Type1/lmro10.afm
p1611
aV/usr/share/fonts/X11/Type1/qplr.afm
p1612
aV/usr/share/fonts/X11/Type1/qcsr.afm
p1613
aV/usr/share/fonts/type1/gsfonts/a010013l.afm
p1614
aV/usr/share/fonts/X11/Type1/c0583bt_.afm
p1615
aV/usr/share/fonts/X11/Type1/qagri.afm
p1616
aV/usr/share/fonts/X11/Type1/qbkbi.afm
p1617
aV/usr/share/fonts/type1/texlive-fonts-recommended/bchbi8a.afm
p1618
aV/usr/share/fonts/X11/Type1/lmcsc10.afm
p1619
aV/usr/share/fonts/X11/Type1/qcrbi.afm
p1620
aV/usr/share/fonts/X11/Type1/qcrb.afm
p1621
aV/usr/share/fonts/X11/Type1/lmssqbo8.afm
p1622
aV/usr/share/fonts/type1/gsfonts/p052003l.afm
p1623
aV/usr/share/fonts/type1/gsfonts/b018032l.afm
p1624
aV/usr/share/fonts/X11/Type1/lmvtk10.afm
p1625
aV/usr/share/fonts/type1/gsfonts/n021023l.afm
p1626
aV/usr/share/fonts/X11/Type1/qhvri.afm
p1627
aV/usr/share/fonts/X11/Type1/lmtlo10.afm
p1628
aV/usr/share/fonts/X11/Type1/lmvtl10.afm
p1629
aV/usr/share/fonts/type1/gsfonts/n021003l.afm
p1630
aV/usr/share/fonts/X11/Type1/lmsso10.afm
p1631
aV/usr/share/fonts/type1/gsfonts/s050000l.afm
p1632
aV/usr/share/fonts/type1/gsfonts/n021004l.afm
p1633
aV/usr/share/fonts/type1/gsfonts/p052024l.afm
p1634
aV/usr/share/fonts/X11/Type1/qtmri.afm
p1635
aV/usr/share/fonts/X11/Type1/qbkb.afm
p1636
aV/usr/share/fonts/type1/gsfonts/n019063l.afm
p1637
aV/usr/share/fonts/X11/Type1/qtmr.afm
p1638
aV/usr/share/fonts/X11/Type1/lmtcsc10.afm
p1639
aV/usr/share/fonts/type1/texlive-fonts-recommended/putb8a.afm
p1640
aV/usr/share/fonts/X11/Type1/qagb.afm
p1641
aV/usr/share/fonts/X11/Type1/c0633bt_.afm
p1642
aV/usr/share/fonts/X11/Type1/lmvtto10.afm
p1643
aV/usr/share/fonts/type1/texlive-fonts-recommended/pcrbo8a.afm
p1644
aV/usr/share/fonts/X11/Type1/c0649bt_.afm
p1645
aV/usr/share/fonts/X11/Type1/lmss10.afm
p1646
aV/usr/share/fonts/X11/Type1/lmvtt10.afm
p1647
aV/usr/share/fonts/type1/gsfonts/b018035l.afm
p1648
aV/usr/share/fonts/X11/Type1/lmduno10.afm
p1649
aV/usr/share/fonts/X11/Type1/qtmbi.afm
p1650
aV/usr/share/fonts/X11/Type1/qcsbi.afm
p1651
aV/usr/share/fonts/type1/texlive-fonts-recommended/pcrb8a.afm
p1652
aV/usr/share/fonts/type1/gsfonts/n022004l.afm
p1653
aV/usr/share/fonts/X11/Type1/qhvcbi.afm
p1654
aV/usr/share/fonts/type1/texlive-fonts-recommended/putbi8a.afm
p1655
aV/usr/share/fonts/X11/Type1/lmri10.afm
p1656
aV/usr/share/fonts/type1/gsfonts/n019004l.afm
p1657
aV/usr/share/fonts/X11/Type1/lmr10.afm
p1658
aV/usr/share/fonts/type1/gsfonts/a010015l.afm
p1659
aV/usr/share/fonts/X11/Type1/lmtl10.afm
p1660
aV/usr/share/fonts/X11/Type1/qplri.afm
p1661
aV/usr/share/fonts/X11/Type1/qagbi.afm
p1662
aV/usr/share/fonts/X11/Type1/qhvcr.afm
p1663
aV/usr/share/fonts/X11/Type1/lmtlco10.afm
p1664
aV/usr/share/fonts/X11/Type1/lmtto10.afm
p1665
aV/usr/share/fonts/X11/Type1/qplb.afm
p1666
aV/usr/share/fonts/X11/Type1/c0648bt_.afm
p1667
aV/usr/share/fonts/type1/gsfonts/n022003l.afm
p1668
aV/usr/share/fonts/type1/gsfonts/a010033l.afm
p1669
aV/usr/share/fonts/X11/Type1/lmvtko10.afm
p1670
aV/usr/share/fonts/type1/texlive-fonts-recommended/bchri8a.afm
p1671
aV/usr/share/fonts/type1/texlive-fonts-recommended/bchb8a.afm
p1672
aV/usr/share/fonts/type1/gsfonts/n019043l.afm
p1673
aV/usr/share/fonts/X11/Type1/qcrri.afm
p1674
aV/usr/share/fonts/X11/Type1/lmssbx10.afm
p1675
aV/usr/share/fonts/type1/gsfonts/n019064l.afm
p1676
aV/usr/share/fonts/X11/Type1/c0582bt_.afm
p1677
aV/usr/share/fonts/X11/Type1/lmssq8.afm
p1678
aV/usr/share/fonts/X11/Type1/lmssbo10.afm
p1679
aV/usr/share/fonts/type1/texlive-fonts-recommended/pcrr8a.afm
p1680
aV/usr/share/fonts/X11/Type1/qagr.afm
p1681
aV/usr/share/fonts/type1/gsfonts/c059033l.afm
p1682
aV/usr/share/fonts/type1/texlive-fonts-recommended/bchr8a.afm
p1683
aV/usr/share/fonts/type1/gsfonts/n019023l.afm
p1684
aV/usr/share/fonts/X11/Type1/lmtko10.afm
p1685
aV/usr/share/fonts/X11/Type1/qzcmi.afm
p1686
aV/usr/share/fonts/X11/Type1/c0611bt_.afm
p1687
aV/usr/share/fonts/X11/Type1/lmbo10.afm
p1688
aV/usr/share/fonts/type1/gsfonts/p052023l.afm
p1689
aV/usr/share/fonts/X11/Type1/qplbi.afm
p1690
aV/usr/share/fonts/X11/Type1/lmssdc10.afm
p1691
aV/usr/share/fonts/type1/gsfonts/c059016l.afm
p1692
aV/usr/share/fonts/type1/gsfonts/n022023l.afm
p1693
aV/usr/share/fonts/X11/Type1/qhvcri.afm
p1694
aV/usr/share/fonts/type1/gsfonts/a010035l.afm
p1695
aV/usr/share/fonts/X11/Type1/qbkri.afm
p1696
aV/usr/share/fonts/X11/Type1/c0632bt_.afm
p1697
aV/usr/share/fonts/X11/Type1/lmu10.afm
p1698
asS'afmlist'
p1699
(lp1700
g1
(g8
g3
NtRp1701
(dp1702
g11
Vitalic
p1703
sg13
S'ITC Zapf Chancery'
p1704
sg15
I500
sg16
Vnormal
p1705
sg17
g1705
sg18
g1509
sg20
Vscalable
p1706
sbag1
(g8
g3
NtRp1707
(dp1708
g11
g1705
sg13
S'Helvetica'
p1709
sg15
I500
sg16
g1705
sg17
g1705
sg18
g1512
sg20
g1706
sbag1
(g8
g3
NtRp1710
(dp1711
g11
g1705
sg13
S'Helvetica'
p1712
sg15
I200
sg16
g1705
sg17
g1705
sg18
g1513
sg20
g1706
sbag1
(g8
g3
NtRp1713
(dp1714
g11
g1703
sg13
S'Utopia'
p1715
sg15
I700
sg16
g1705
sg17
g1705
sg18
g1514
sg20
g1706
sbag1
(g8
g3
NtRp1716
(dp1717
g11
g1703
sg13
S'Helvetica'
p1718
sg15
I700
sg16
g1705
sg17
g1705
sg18
g1515
sg20
g1706
sbag1
(g8
g3
NtRp1719
(dp1720
g11
g1703
sg13
S'Helvetica'
p1721
sg15
I500
sg16
Vcondensed
p1722
sg17
g1705
sg18
g1516
sg20
g1706
sbag1
(g8
g3
NtRp1723
(dp1724
g11
g1705
sg13
S'ITC Bookman'
p1725
sg15
I600
sg16
g1705
sg17
g1705
sg18
g1517
sg20
g1706
sbag1
(g8
g3
NtRp1726
(dp1727
g11
g1703
sg13
S'Courier'
p1728
sg15
I700
sg16
g1705
sg17
g1705
sg18
g1518
sg20
g1706
sbag1
(g8
g3
NtRp1729
(dp1730
g11
g1705
sg13
S'Helvetica'
p1731
sg15
I700
sg16
g1705
sg17
g1705
sg18
g1519
sg20
g1706
sbag1
(g8
g3
NtRp1732
(dp1733
g11
g1703
sg13
S'Times'
p1734
sg15
I700
sg16
g1705
sg17
g1705
sg18
g1520
sg20
g1706
sbag1
(g8
g3
NtRp1735
(dp1736
g11
g1705
sg13
S'Courier'
p1737
sg15
I700
sg16
g1705
sg17
g1705
sg18
g1521
sg20
g1706
sbag1
(g8
g3
NtRp1738
(dp1739
g11
g1705
sg13
S'Helvetica'
p1740
sg15
I500
sg16
g1705
sg17
g1705
sg18
g1522
sg20
g1706
sbag1
(g8
g3
NtRp1741
(dp1742
g11
g1705
sg13
S'Courier'
p1743
sg15
I500
sg16
g1705
sg17
g1705
sg18
g1523
sg20
g1706
sbag1
(g8
g3
NtRp1744
(dp1745
g11
g1703
sg13
S'New Century Schoolbook'
p1746
sg15
I500
sg16
g1705
sg17
g1705
sg18
g1524
sg20
g1706
sbag1
(g8
g3
NtRp1747
(dp1748
g11
g1705
sg13
S'New Century Schoolbook'
p1749
sg15
I700
sg16
g1705
sg17
g1705
sg18
g1525
sg20
g1706
sbag1
(g8
g3
NtRp1750
(dp1751
g11
g1705
sg13
S'Courier'
p1752
sg15
I700
sg16
g1705
sg17
g1705
sg18
g1526
sg20
g1706
sbag1
(g8
g3
NtRp1753
(dp1754
g11
g1703
sg13
S'Courier'
p1755
sg15
I500
sg16
g1705
sg17
g1705
sg18
g1527
sg20
g1706
sbag1
(g8
g3
NtRp1756
(dp1757
g11
g1705
sg13
S'Computer Modern'
p1758
sg15
I500
sg16
g1705
sg17
g1705
sg18
g1528
sg20
g1706
sbag1
(g8
g3
NtRp1759
(dp1760
g11
g1705
sg13
S'Computer Modern'
p1761
sg15
I500
sg16
g1705
sg17
g1705
sg18
g1529
sg20
g1706
sbag1
(g8
g3
NtRp1762
(dp1763
g11
g1705
sg13
S'Symbol'
p1764
sg15
I500
sg16
g1705
sg17
g1705
sg18
g1530
sg20
g1706
sbag1
(g8
g3
NtRp1765
(dp1766
g11
g1705
sg13
S'Helvetica'
p1767
sg15
I500
sg16
g1722
sg17
g1705
sg18
g1531
sg20
g1706
sbag1
(g8
g3
NtRp1768
(dp1769
g11
g1703
sg13
S'Helvetica'
p1770
sg15
I500
sg16
g1705
sg17
g1705
sg18
g1532
sg20
g1706
sbag1
(g8
g3
NtRp1771
(dp1772
g11
g1705
sg13
S'Times'
p1773
sg15
I500
sg16
g1705
sg17
g1705
sg18
g1533
sg20
g1706
sbag1
(g8
g3
NtRp1774
(dp1775
g11
g1703
sg13
S'Helvetica'
p1776
sg15
I500
sg16
g1705
sg17
g1705
sg18
g1534
sg20
g1706
sbag1
(g8
g3
NtRp1777
(dp1778
g11
g1703
sg13
S'Palatino'
p1779
sg15
I700
sg16
g1705
sg17
g1705
sg18
g1535
sg20
g1706
sbag1
(g8
g3
NtRp1780
(dp1781
g11
g1703
sg13
S'Computer Modern'
p1782
sg15
I500
sg16
g1705
sg17
g1705
sg18
g1536
sg20
g1706
sbag1
(g8
g3
NtRp1783
(dp1784
g11
g1705
sg13
S'ITC Avant Garde Gothic'
p1785
sg15
I400
sg16
g1705
sg17
g1705
sg18
g1537
sg20
g1706
sbag1
(g8
g3
NtRp1786
(dp1787
g11
g1703
sg13
S'Courier'
p1788
sg15
I700
sg16
g1705
sg17
g1705
sg18
g1538
sg20
g1706
sbag1
(g8
g3
NtRp1789
(dp1790
g11
g1705
sg13
S'Utopia'
p1791
sg15
I700
sg16
g1705
sg17
g1705
sg18
g1539
sg20
g1706
sbag1
(g8
g3
NtRp1792
(dp1793
g11
g1703
sg13
S'Computer Modern'
p1794
sg15
I500
sg16
g1705
sg17
g1705
sg18
g1540
sg20
g1706
sbag1
(g8
g3
NtRp1795
(dp1796
g11
g1703
sg13
S'ITC Avant Garde Gothic'
p1797
sg15
I400
sg16
g1705
sg17
g1705
sg18
g1541
sg20
g1706
sbag1
(g8
g3
NtRp1798
(dp1799
g11
g1703
sg13
S'ITC Bookman'
p1800
sg15
I600
sg16
g1705
sg17
g1705
sg18
g1542
sg20
g1706
sbag1
(g8
g3
NtRp1801
(dp1802
g11
g1703
sg13
S'Helvetica'
p1803
sg15
I700
sg16
g1705
sg17
g1705
sg18
g1543
sg20
g1706
sbag1
(g8
g3
NtRp1804
(dp1805
g11
g1705
sg13
S'Computer Modern'
p1806
sg15
I500
sg16
g1705
sg17
g1705
sg18
g1544
sg20
g1706
sbag1
(g8
g3
NtRp1807
(dp1808
g11
g1705
sg13
S'Times'
p1809
sg15
I700
sg16
g1705
sg17
g1705
sg18
g1545
sg20
g1706
sbag1
(g8
g3
NtRp1810
(dp1811
g11
g1703
sg13
S'ITC Avant Garde Gothic'
p1812
sg15
I600
sg16
g1705
sg17
g1705
sg18
g1546
sg20
g1706
sbag1
(g8
g3
NtRp1813
(dp1814
g11
g1705
sg13
S'Symbol'
p1815
sg15
I500
sg16
g1705
sg17
g1705
sg18
g1547
sg20
g1706
sbag1
(g8
g3
NtRp1816
(dp1817
g11
g1703
sg13
S'Helvetica'
p1818
sg15
I200
sg16
g1705
sg17
g1705
sg18
g1548
sg20
g1706
sbag1
(g8
g3
NtRp1819
(dp1820
g11
g1705
sg13
S'Helvetica'
p1821
sg15
I700
sg16
g1705
sg17
g1705
sg18
g1549
sg20
g1706
sbag1
(g8
g3
NtRp1822
(dp1823
g11
g1705
sg13
S'Palatino'
p1824
sg15
I700
sg16
g1705
sg17
g1705
sg18
g1550
sg20
g1706
sbag1
(g8
g3
NtRp1825
(dp1826
g11
g1705
sg13
S'ITC Zapf Dingbats'
p1827
sg15
I500
sg16
g1705
sg17
g1705
sg18
g1551
sg20
g1706
sbag1
(g8
g3
NtRp1828
(dp1829
g11
g1703
sg13
S'Times'
p1830
sg15
I500
sg16
g1705
sg17
g1705
sg18
g1552
sg20
g1706
sbag1
(g8
g3
NtRp1831
(dp1832
g11
g1705
sg13
S'Palatino'
p1833
sg15
I500
sg16
g1705
sg17
g1705
sg18
g1553
sg20
g1706
sbag1
(g8
g3
NtRp1834
(dp1835
g11
g1705
sg13
S'ITC Bookman'
p1836
sg15
I200
sg16
g1705
sg17
g1705
sg18
g1554
sg20
g1706
sbag1
(g8
g3
NtRp1837
(dp1838
g11
g1703
sg13
S'New Century Schoolbook'
p1839
sg15
I700
sg16
g1705
sg17
g1705
sg18
g1555
sg20
g1706
sbag1
(g8
g3
NtRp1840
(dp1841
g11
g1705
sg13
S'ZapfDingbats'
p1842
sg15
I500
sg16
g1705
sg17
g1705
sg18
g1556
sg20
g1706
sbag1
(g8
g3
NtRp1843
(dp1844
g11
g1705
sg13
S'Times'
p1845
sg15
I700
sg16
g1705
sg17
g1705
sg18
g1557
sg20
g1706
sbag1
(g8
g3
NtRp1846
(dp1847
g11
g1703
sg13
S'Utopia'
p1848
sg15
I400
sg16
g1705
sg17
g1705
sg18
g1558
sg20
g1706
sbag1
(g8
g3
NtRp1849
(dp1850
g11
g1703
sg13
S'Palatino'
p1851
sg15
I500
sg16
g1705
sg17
g1705
sg18
g1559
sg20
g1706
sbag1
(g8
g3
NtRp1852
(dp1853
g11
g1703
sg13
S'Times'
p1854
sg15
I700
sg16
g1705
sg17
g1705
sg18
g1560
sg20
g1706
sbag1
(g8
g3
NtRp1855
(dp1856
g11
g1703
sg13
S'ITC Bookman'
p1857
sg15
I200
sg16
g1705
sg17
g1705
sg18
g1561
sg20
g1706
sbag1
(g8
g3
NtRp1858
(dp1859
g11
g1703
sg13
S'Courier'
p1860
sg15
I500
sg16
g1705
sg17
g1705
sg18
g1562
sg20
g1706
sbag1
(g8
g3
NtRp1861
(dp1862
g11
g1705
sg13
S'Utopia'
p1863
sg15
I400
sg16
g1705
sg17
g1705
sg18
g1563
sg20
g1706
sbag1
(g8
g3
NtRp1864
(dp1865
g11
g1705
sg13
S'ITC Avant Garde Gothic'
p1866
sg15
I600
sg16
g1705
sg17
g1705
sg18
g1564
sg20
g1706
sbag1
(g8
g3
NtRp1867
(dp1868
g11
g1705
sg13
S'New Century Schoolbook'
p1869
sg15
I500
sg16
g1705
sg17
g1705
sg18
g1565
sg20
g1706
sbag1
(g8
g3
NtRp1870
(dp1871
g11
g1703
sg13
S'Times'
p1872
sg15
I500
sg16
g1705
sg17
g1705
sg18
g1566
sg20
g1706
sbag1
(g8
g3
NtRp1873
(dp1874
g11
g1705
sg13
S'Times'
p1875
sg15
I500
sg16
g1705
sg17
g1705
sg18
g1567
sg20
g1706
sbag1
(g8
g3
NtRp1876
(dp1877
g11
g1703
sg13
S'Helvetica'
p1878
sg15
I700
sg16
g1722
sg17
g1705
sg18
g1568
sg20
g1706
sbag1
(g8
g3
NtRp1879
(dp1880
g11
g1705
sg13
S'Courier'
p1881
sg15
I500
sg16
g1705
sg17
g1705
sg18
g1569
sg20
g1706
sbag1
(g8
g3
NtRp1882
(dp1883
g11
g1705
sg13
S'Helvetica'
p1884
sg15
I700
sg16
g1722
sg17
g1705
sg18
g1570
sg20
g1706
sbag1
(g8
g3
NtRp1885
(dp1886
g11
g1705
sg13
S'LMMono10'
p1887
sg15
I400
sg16
g1705
sg17
g1705
sg18
g1571
sg20
g1706
sbag1
(g8
g3
NtRp1888
(dp1889
g11
g1705
sg13
S'URW Palladio L'
p1890
sg15
I700
sg16
g1705
sg17
g1705
sg18
g1572
sg20
g1706
sbag1
(g8
g3
NtRp1891
(dp1892
g11
g1703
sg13
S'LMSansQuot8'
p1893
sg15
I400
sg16
g1705
sg17
g1705
sg18
g1573
sg20
g1706
sbag1
(g8
g3
NtRp1894
(dp1895
g11
g1705
sg13
S'URW Bookman L'
p1896
sg15
I700
sg16
g1705
sg17
g1705
sg18
g1574
sg20
g1706
sbag1
(g8
g3
NtRp1897
(dp1898
g11
g1703
sg13
S'LMRomanSlant10'
p1899
sg15
I700
sg16
g1705
sg17
g1705
sg18
g1575
sg20
g1706
sbag1
(g8
g3
NtRp1900
(dp1901
g11
g1703
sg13
S'Nimbus Mono L'
p1902
sg15
I700
sg16
g1705
sg17
g1705
sg18
g1577
sg20
g1706
sbag1
(g8
g3
NtRp1903
(dp1904
g11
g1705
sg13
S'LMMonoLtCond10'
p1905
sg15
I200
sg16
g1722
sg17
g1705
sg18
g1578
sg20
g1706
sbag1
(g8
g3
NtRp1906
(dp1907
g11
g1705
sg13
S'LMMonoLt10'
p1908
sg15
I700
sg16
g1705
sg17
g1705
sg18
g1579
sg20
g1706
sbag1
(g8
g3
NtRp1909
(dp1910
g11
g1705
sg13
S'TeXGyreBonum'
p1911
sg15
I400
sg16
g1705
sg17
g1705
sg18
g1580
sg20
g1706
sbag1
(g8
g3
NtRp1912
(dp1913
g11
g1705
sg13
S'LMRomanDunh10'
p1914
sg15
I400
sg16
g1705
sg17
g1705
sg18
g1581
sg20
g1706
sbag1
(g8
g3
NtRp1915
(dp1916
g11
g1705
sg13
S'Nimbus Sans L'
p1917
sg15
I400
sg16
g1705
sg17
g1705
sg18
g1582
sg20
g1706
sbag1
(g8
g3
NtRp1918
(dp1919
g11
g1703
sg13
S'TeXGyreSchola'
p1920
sg15
I400
sg16
g1705
sg17
g1705
sg18
g1583
sg20
g1706
sbag1
(g8
g3
NtRp1921
(dp1922
g11
g1703
sg13
S'LMMono10'
p1923
sg15
I400
sg16
g1705
sg17
g1705
sg18
g1584
sg20
g1706
sbag1
(g8
g3
NtRp1924
(dp1925
g11
g1705
sg13
S'TeXGyreCursor'
p1926
sg15
I400
sg16
g1705
sg17
g1705
sg18
g1585
sg20
g1706
sbag1
(g8
g3
NtRp1927
(dp1928
g11
g1703
sg13
S'Century Schoolbook L'
p1929
sg15
I700
sg16
g1705
sg17
g1705
sg18
g1586
sg20
g1706
sbag1
(g8
g3
NtRp1930
(dp1931
g11
g1705
sg13
S'TeXGyreTermes'
p1932
sg15
I700
sg16
g1705
sg17
g1705
sg18
g1587
sg20
g1706
sbag1
(g8
g3
NtRp1933
(dp1934
g11
g1705
sg13
S'TeXGyreHerosCondensed'
p1935
sg15
I700
sg16
g1722
sg17
g1705
sg18
g1588
sg20
g1706
sbag1
(g8
g3
NtRp1936
(dp1937
g11
g1703
sg13
S'LMMonoPropLt10'
p1938
sg15
I200
sg16
g1705
sg17
g1705
sg18
g1590
sg20
g1706
sbag1
(g8
g3
NtRp1939
(dp1940
g11
g1703
sg13
S'LMMonoCaps10'
p1941
sg15
I400
sg16
g1705
sg17
g1705
sg18
g1591
sg20
g1706
sbag1
(g8
g3
NtRp1942
(dp1943
g11
g1705
sg13
S'Century Schoolbook L'
p1944
sg15
I500
sg16
g1705
sg17
g1705
sg18
g1592
sg20
g1706
sbag1
(g8
g3
NtRp1945
(dp1946
g11
g1705
sg13
S'Courier 10 Pitch'
p1947
sg15
I400
sg16
g1705
sg17
g1705
sg18
g1593
sg20
g1706
sbag1
(g8
g3
NtRp1948
(dp1949
g11
g1703
sg13
S'Nimbus Roman No9 L'
p1950
sg15
I700
sg16
g1705
sg17
g1705
sg18
g1594
sg20
g1706
sbag1
(g8
g3
NtRp1951
(dp1952
g11
g1703
sg13
S'Nimbus Sans L'
p1953
sg15
I700
sg16
g1705
sg17
g1705
sg18
g1595
sg20
g1706
sbag1
(g8
g3
NtRp1954
(dp1955
g11
g1703
sg13
S'TeXGyreHeros'
p1956
sg15
I700
sg16
g1705
sg17
g1705
sg18
g1596
sg20
g1706
sbag1
(g8
g3
NtRp1957
(dp1958
g11
g1705
sg13
S'TeXGyreSchola'
p1959
sg15
I700
sg16
g1705
sg17
g1705
sg18
g1597
sg20
g1706
sbag1
(g8
g3
NtRp1960
(dp1961
g11
g1705
sg13
S'LMRoman10'
p1962
sg15
I700
sg16
g1705
sg17
g1705
sg18
g1598
sg20
g1706
sbag1
(g8
g3
NtRp1963
(dp1964
g11
g1705
sg13
S'Dingbats'
p1965
sg15
I400
sg16
g1705
sg17
g1705
sg18
g1599
sg20
g1706
sbag1
(g8
g3
NtRp1966
(dp1967
g11
g1703
sg13
S'LMSansDemiCond10'
p1968
sg15
I600
sg16
g1722
sg17
g1705
sg18
g1600
sg20
g1706
sbag1
(g8
g3
NtRp1969
(dp1970
g11
g1705
sg13
S'LMSansQuot8'
p1971
sg15
I700
sg16
g1705
sg17
g1705
sg18
g1601
sg20
g1706
sbag1
(g8
g3
NtRp1972
(dp1973
g11
g1705
sg13
S'TeXGyreHeros'
p1974
sg15
I700
sg16
g1705
sg17
g1705
sg18
g1602
sg20
g1706
sbag1
(g8
g3
NtRp1975
(dp1976
g11
g1705
sg13
S'LMRomanDemi10'
p1977
sg15
I600
sg16
g1705
sg17
g1705
sg18
g1603
sg20
g1706
sbag1
(g8
g3
NtRp1978
(dp1979
g11
g1705
sg13
S'Nimbus Sans L'
p1980
sg15
I700
sg16
g1722
sg17
g1705
sg18
g1604
sg20
g1706
sbag1
(g8
g3
NtRp1981
(dp1982
g11
g1703
sg13
S'URW Chancery L'
p1983
sg15
I500
sg16
g1705
sg17
g1705
sg18
g1605
sg20
g1706
sbag1
(g8
g3
NtRp1984
(dp1985
g11
g1705
sg13
S'TeXGyreHeros'
p1986
sg15
I400
sg16
g1705
sg17
g1705
sg18
g1606
sg20
g1706
sbag1
(g8
g3
NtRp1987
(dp1988
g11
g1703
sg13
S'LMRoman10'
p1989
sg15
I700
sg16
g1705
sg17
g1705
sg18
g1607
sg20
g1706
sbag1
(g8
g3
NtRp1990
(dp1991
g11
g1703
sg13
S'LMRomanCaps10'
p1992
sg15
I400
sg16
g1705
sg17
g1705
sg18
g1608
sg20
g1706
sbag1
(g8
g3
NtRp1993
(dp1994
g11
g1705
sg13
S'URW Bookman L'
p1995
sg15
I400
sg16
g1705
sg17
g1705
sg18
g1610
sg20
g1706
sbag1
(g8
g3
NtRp1996
(dp1997
g11
g1703
sg13
S'LMRomanSlant10'
p1998
sg15
I400
sg16
g1705
sg17
g1705
sg18
g1611
sg20
g1706
sbag1
(g8
g3
NtRp1999
(dp2000
g11
g1705
sg13
S'TeXGyrePagella'
p2001
sg15
I400
sg16
g1705
sg17
g1705
sg18
g1612
sg20
g1706
sbag1
(g8
g3
NtRp2002
(dp2003
g11
g1705
sg13
S'TeXGyreSchola'
p2004
sg15
I400
sg16
g1705
sg17
g1705
sg18
g1613
sg20
g1706
sbag1
(g8
g3
NtRp2005
(dp2006
g11
g1705
sg13
S'URW Gothic L'
p2007
sg15
I400
sg16
g1705
sg17
g1705
sg18
g1614
sg20
g1706
sbag1
(g8
g3
NtRp2008
(dp2009
g11
g1705
sg13
S'Courier 10 Pitch'
p2010
sg15
I700
sg16
g1705
sg17
g1705
sg18
g1615
sg20
g1706
sbag1
(g8
g3
NtRp2011
(dp2012
g11
g1703
sg13
S'TeXGyreAdventor'
p2013
sg15
I400
sg16
g1705
sg17
g1705
sg18
g1616
sg20
g1706
sbag1
(g8
g3
NtRp2014
(dp2015
g11
g1703
sg13
S'TeXGyreBonum'
p2016
sg15
I700
sg16
g1705
sg17
g1705
sg18
g1617
sg20
g1706
sbag1
(g8
g3
NtRp2017
(dp2018
g11
g1703
sg13
S'Bitstream Charter'
p2019
sg15
I700
sg16
g1705
sg17
g1705
sg18
g1618
sg20
g1706
sbag1
(g8
g3
NtRp2020
(dp2021
g11
g1705
sg13
S'LMRomanCaps10'
p2022
sg15
I400
sg16
g1705
sg17
g1705
sg18
g1619
sg20
g1706
sbag1
(g8
g3
NtRp2023
(dp2024
g11
g1703
sg13
S'TeXGyreCursor'
p2025
sg15
I700
sg16
g1705
sg17
g1705
sg18
g1620
sg20
g1706
sbag1
(g8
g3
NtRp2026
(dp2027
g11
g1705
sg13
S'TeXGyreCursor'
p2028
sg15
I700
sg16
g1705
sg17
g1705
sg18
g1621
sg20
g1706
sbag1
(g8
g3
NtRp2029
(dp2030
g11
g1703
sg13
S'LMSansQuot8'
p2031
sg15
I700
sg16
g1705
sg17
g1705
sg18
g1622
sg20
g1706
sbag1
(g8
g3
NtRp2032
(dp2033
g11
g1705
sg13
S'URW Palladio L'
p2034
sg15
I500
sg16
g1705
sg17
g1705
sg18
g1623
sg20
g1706
sbag1
(g8
g3
NtRp2035
(dp2036
g11
g1703
sg13
S'URW Bookman L'
p2037
sg15
I400
sg16
g1705
sg17
g1705
sg18
g1624
sg20
g1706
sbag1
(g8
g3
NtRp2038
(dp2039
g11
g1705
sg13
S'LMMonoPropLt10'
p2040
sg15
I700
sg16
g1705
sg17
g1705
sg18
g1625
sg20
g1706
sbag1
(g8
g3
NtRp2041
(dp2042
g11
g1703
sg13
S'Nimbus Roman No9 L'
p2043
sg15
I400
sg16
g1705
sg17
g1705
sg18
g1626
sg20
g1706
sbag1
(g8
g3
NtRp2044
(dp2045
g11
g1703
sg13
S'TeXGyreHeros'
p2046
sg15
I400
sg16
g1705
sg17
g1705
sg18
g1627
sg20
g1706
sbag1
(g8
g3
NtRp2047
(dp2048
g11
g1703
sg13
S'LMMonoLt10'
p2049
sg15
I200
sg16
g1705
sg17
g1705
sg18
g1628
sg20
g1706
sbag1
(g8
g3
NtRp2050
(dp2051
g11
g1705
sg13
S'LMMonoPropLt10'
p2052
sg15
I200
sg16
g1705
sg17
g1705
sg18
g1629
sg20
g1706
sbag1
(g8
g3
NtRp2053
(dp2054
g11
g1705
sg13
S'Nimbus Roman No9 L'
p2055
sg15
I400
sg16
g1705
sg17
g1705
sg18
g1630
sg20
g1706
sbag1
(g8
g3
NtRp2056
(dp2057
g11
g1703
sg13
S'LMSans10'
p2058
sg15
I400
sg16
g1705
sg17
g1705
sg18
g1631
sg20
g1706
sbag1
(g8
g3
NtRp2059
(dp2060
g11
g1705
sg13
S'Standard Symbols L'
p2061
sg15
I400
sg16
g1705
sg17
g1705
sg18
g1632
sg20
g1706
sbag1
(g8
g3
NtRp2062
(dp2063
g11
g1705
sg13
S'Nimbus Roman No9 L'
p2064
sg15
I700
sg16
g1705
sg17
g1705
sg18
g1633
sg20
g1706
sbag1
(g8
g3
NtRp2065
(dp2066
g11
g1703
sg13
S'URW Palladio L'
p2067
sg15
I700
sg16
g1705
sg17
g1705
sg18
g1634
sg20
g1706
sbag1
(g8
g3
NtRp2068
(dp2069
g11
g1703
sg13
S'TeXGyreTermes'
p2070
sg15
I400
sg16
g1705
sg17
g1705
sg18
g1635
sg20
g1706
sbag1
(g8
g3
NtRp2071
(dp2072
g11
g1705
sg13
S'TeXGyreBonum'
p2073
sg15
I700
sg16
g1705
sg17
g1705
sg18
g1636
sg20
g1706
sbag1
(g8
g3
NtRp2074
(dp2075
g11
g1703
sg13
S'Nimbus Sans L'
p2076
sg15
I400
sg16
g1722
sg17
g1705
sg18
g1637
sg20
g1706
sbag1
(g8
g3
NtRp2077
(dp2078
g11
g1705
sg13
S'TeXGyreTermes'
p2079
sg15
I400
sg16
g1705
sg17
g1705
sg18
g1638
sg20
g1706
sbag1
(g8
g3
NtRp2080
(dp2081
g11
g1705
sg13
S'LMMonoCaps10'
p2082
sg15
I400
sg16
g1705
sg17
g1705
sg18
g1639
sg20
g1706
sbag1
(g8
g3
NtRp2083
(dp2084
g11
g1705
sg13
S'TeXGyreAdventor'
p2085
sg15
I700
sg16
g1705
sg17
g1705
sg18
g1641
sg20
g1706
sbag1
(g8
g3
NtRp2086
(dp2087
g11
g1703
sg13
S'Bitstream Charter'
p2088
sg15
I700
sg16
g1705
sg17
g1705
sg18
g1642
sg20
g1706
sbag1
(g8
g3
NtRp2089
(dp2090
g11
g1703
sg13
S'LMMonoProp10'
p2091
sg15
I400
sg16
g1705
sg17
g1705
sg18
g1643
sg20
g1706
sbag1
(g8
g3
NtRp2092
(dp2093
g11
g1703
sg13
S'Bitstream Charter'
p2094
sg15
I400
sg16
g1705
sg17
g1705
sg18
g1645
sg20
g1706
sbag1
(g8
g3
NtRp2095
(dp2096
g11
g1705
sg13
S'LMSans10'
p2097
sg15
I400
sg16
g1705
sg17
g1705
sg18
g1646
sg20
g1706
sbag1
(g8
g3
NtRp2098
(dp2099
g11
g1705
sg13
S'LMMonoProp10'
p2100
sg15
I400
sg16
g1705
sg17
g1705
sg18
g1647
sg20
g1706
sbag1
(g8
g3
NtRp2101
(dp2102
g11
g1703
sg13
S'URW Bookman L'
p2103
sg15
I700
sg16
g1705
sg17
g1705
sg18
g1648
sg20
g1706
sbag1
(g8
g3
NtRp2104
(dp2105
g11
g1703
sg13
S'LMRomanDunh10'
p2106
sg15
I400
sg16
g1705
sg17
g1705
sg18
g1649
sg20
g1706
sbag1
(g8
g3
NtRp2107
(dp2108
g11
g1703
sg13
S'TeXGyreTermes'
p2109
sg15
I700
sg16
g1705
sg17
g1705
sg18
g1650
sg20
g1706
sbag1
(g8
g3
NtRp2110
(dp2111
g11
g1703
sg13
S'TeXGyreSchola'
p2112
sg15
I400
sg16
g1705
sg17
g1705
sg18
g1651
sg20
g1706
sbag1
(g8
g3
NtRp2113
(dp2114
g11
g1705
sg13
S'Nimbus Mono L'
p2115
sg15
I700
sg16
g1705
sg17
g1705
sg18
g1653
sg20
g1706
sbag1
(g8
g3
NtRp2116
(dp2117
g11
g1703
sg13
S'TeXGyreHerosCondensed'
p2118
sg15
I700
sg16
g1722
sg17
g1705
sg18
g1654
sg20
g1706
sbag1
(g8
g3
NtRp2119
(dp2120
g11
g1703
sg13
S'LMRoman10'
p2121
sg15
I400
sg16
g1705
sg17
g1705
sg18
g1656
sg20
g1706
sbag1
(g8
g3
NtRp2122
(dp2123
g11
g1705
sg13
S'Nimbus Sans L'
p2124
sg15
I700
sg16
g1705
sg17
g1705
sg18
g1657
sg20
g1706
sbag1
(g8
g3
NtRp2125
(dp2126
g11
g1705
sg13
S'LMRoman10'
p2127
sg15
I400
sg16
g1705
sg17
g1705
sg18
g1658
sg20
g1706
sbag1
(g8
g3
NtRp2128
(dp2129
g11
g1705
sg13
S'URW Gothic L'
p2130
sg15
I600
sg16
g1705
sg17
g1705
sg18
g1659
sg20
g1706
sbag1
(g8
g3
NtRp2131
(dp2132
g11
g1705
sg13
S'LMMonoLt10'
p2133
sg15
I200
sg16
g1705
sg17
g1705
sg18
g1660
sg20
g1706
sbag1
(g8
g3
NtRp2134
(dp2135
g11
g1703
sg13
S'TeXGyrePagella'
p2136
sg15
I400
sg16
g1705
sg17
g1705
sg18
g1661
sg20
g1706
sbag1
(g8
g3
NtRp2137
(dp2138
g11
g1703
sg13
S'TeXGyreAdventor'
p2139
sg15
I700
sg16
g1705
sg17
g1705
sg18
g1662
sg20
g1706
sbag1
(g8
g3
NtRp2140
(dp2141
g11
g1705
sg13
S'TeXGyreHerosCondensed'
p2142
sg15
I400
sg16
g1722
sg17
g1705
sg18
g1663
sg20
g1706
sbag1
(g8
g3
NtRp2143
(dp2144
g11
g1703
sg13
S'LMMonoLtCond10'
p2145
sg15
I200
sg16
g1722
sg17
g1705
sg18
g1664
sg20
g1706
sbag1
(g8
g3
NtRp2146
(dp2147
g11
g1703
sg13
S'LMMonoSlant10'
p2148
sg15
I400
sg16
g1705
sg17
g1705
sg18
g1665
sg20
g1706
sbag1
(g8
g3
NtRp2149
(dp2150
g11
g1705
sg13
S'TeXGyrePagella'
p2151
sg15
I700
sg16
g1705
sg17
g1705
sg18
g1666
sg20
g1706
sbag1
(g8
g3
NtRp2152
(dp2153
g11
g1705
sg13
S'Bitstream Charter'
p2154
sg15
I400
sg16
g1705
sg17
g1705
sg18
g1667
sg20
g1706
sbag1
(g8
g3
NtRp2155
(dp2156
g11
g1705
sg13
S'Nimbus Mono L'
p2157
sg15
I400
sg16
g1705
sg17
g1705
sg18
g1668
sg20
g1706
sbag1
(g8
g3
NtRp2158
(dp2159
g11
g1703
sg13
S'URW Gothic L'
p2160
sg15
I400
sg16
g1705
sg17
g1705
sg18
g1669
sg20
g1706
sbag1
(g8
g3
NtRp2161
(dp2162
g11
g1703
sg13
S'LMMonoPropLt10'
p2163
sg15
I700
sg16
g1705
sg17
g1705
sg18
g1670
sg20
g1706
sbag1
(g8
g3
NtRp2164
(dp2165
g11
g1703
sg13
S'Bitstream Charter'
p2166
sg15
I400
sg16
g1705
sg17
g1705
sg18
g1671
sg20
g1706
sbag1
(g8
g3
NtRp2167
(dp2168
g11
g1705
sg13
S'Bitstream Charter'
p2169
sg15
I700
sg16
g1705
sg17
g1705
sg18
g1672
sg20
g1706
sbag1
(g8
g3
NtRp2170
(dp2171
g11
g1705
sg13
S'Nimbus Sans L'
p2172
sg15
I400
sg16
g1722
sg17
g1705
sg18
g1673
sg20
g1706
sbag1
(g8
g3
NtRp2173
(dp2174
g11
g1703
sg13
S'TeXGyreCursor'
p2175
sg15
I400
sg16
g1705
sg17
g1705
sg18
g1674
sg20
g1706
sbag1
(g8
g3
NtRp2176
(dp2177
g11
g1705
sg13
S'LMSans10'
p2178
sg15
I700
sg16
g1705
sg17
g1705
sg18
g1675
sg20
g1706
sbag1
(g8
g3
NtRp2179
(dp2180
g11
g1703
sg13
S'Nimbus Sans L'
p2181
sg15
I700
sg16
g1722
sg17
g1705
sg18
g1676
sg20
g1706
sbag1
(g8
g3
NtRp2182
(dp2183
g11
g1703
sg13
S'Courier 10 Pitch'
p2184
sg15
I400
sg16
g1705
sg17
g1705
sg18
g1677
sg20
g1706
sbag1
(g8
g3
NtRp2185
(dp2186
g11
g1705
sg13
S'LMSansQuot8'
p2187
sg15
I400
sg16
g1705
sg17
g1705
sg18
g1678
sg20
g1706
sbag1
(g8
g3
NtRp2188
(dp2189
g11
g1703
sg13
S'LMSans10'
p2190
sg15
I700
sg16
g1705
sg17
g1705
sg18
g1679
sg20
g1706
sbag1
(g8
g3
NtRp2191
(dp2192
g11
g1705
sg13
S'TeXGyreAdventor'
p2193
sg15
I400
sg16
g1705
sg17
g1705
sg18
g1681
sg20
g1706
sbag1
(g8
g3
NtRp2194
(dp2195
g11
g1703
sg13
S'Century Schoolbook L'
p2196
sg15
I400
sg16
g1705
sg17
g1705
sg18
g1682
sg20
g1706
sbag1
(g8
g3
NtRp2197
(dp2198
g11
g1705
sg13
S'Bitstream Charter'
p2199
sg15
I400
sg16
g1705
sg17
g1705
sg18
g1683
sg20
g1706
sbag1
(g8
g3
NtRp2200
(dp2201
g11
g1703
sg13
S'Nimbus Sans L'
p2202
sg15
I400
sg16
g1705
sg17
g1705
sg18
g1684
sg20
g1706
sbag1
(g8
g3
NtRp2203
(dp2204
g11
g1703
sg13
S'LMMonoLt10'
p2205
sg15
I700
sg16
g1705
sg17
g1705
sg18
g1685
sg20
g1706
sbag1
(g8
g3
NtRp2206
(dp2207
g11
g1703
sg13
S'TeXGyreChorus'
p2208
sg15
I500
sg16
g1705
sg17
g1705
sg18
g1686
sg20
g1706
sbag1
(g8
g3
NtRp2209
(dp2210
g11
g1703
sg13
S'Courier 10 Pitch'
p2211
sg15
I700
sg16
g1705
sg17
g1705
sg18
g1687
sg20
g1706
sbag1
(g8
g3
NtRp2212
(dp2213
g11
g1703
sg13
S'LMRomanDemi10'
p2214
sg15
I600
sg16
g1705
sg17
g1705
sg18
g1688
sg20
g1706
sbag1
(g8
g3
NtRp2215
(dp2216
g11
g1703
sg13
S'URW Palladio L'
p2217
sg15
I400
sg16
g1705
sg17
g1705
sg18
g1689
sg20
g1706
sbag1
(g8
g3
NtRp2218
(dp2219
g11
g1703
sg13
S'TeXGyrePagella'
p2220
sg15
I700
sg16
g1705
sg17
g1705
sg18
g1690
sg20
g1706
sbag1
(g8
g3
NtRp2221
(dp2222
g11
g1705
sg13
S'LMSansDemiCond10'
p2223
sg15
I600
sg16
g1722
sg17
g1705
sg18
g1691
sg20
g1706
sbag1
(g8
g3
NtRp2224
(dp2225
g11
g1705
sg13
S'Century Schoolbook L'
p2226
sg15
I700
sg16
g1705
sg17
g1705
sg18
g1692
sg20
g1706
sbag1
(g8
g3
NtRp2227
(dp2228
g11
g1703
sg13
S'Nimbus Mono L'
p2229
sg15
I400
sg16
g1705
sg17
g1705
sg18
g1693
sg20
g1706
sbag1
(g8
g3
NtRp2230
(dp2231
g11
g1703
sg13
S'TeXGyreHerosCondensed'
p2232
sg15
I400
sg16
g1722
sg17
g1705
sg18
g1694
sg20
g1706
sbag1
(g8
g3
NtRp2233
(dp2234
g11
g1703
sg13
S'URW Gothic L'
p2235
sg15
I600
sg16
g1705
sg17
g1705
sg18
g1695
sg20
g1706
sbag1
(g8
g3
NtRp2236
(dp2237
g11
g1703
sg13
S'TeXGyreBonum'
p2238
sg15
I400
sg16
g1705
sg17
g1705
sg18
g1696
sg20
g1706
sbag1
(g8
g3
NtRp2239
(dp2240
g11
g1705
sg13
S'Bitstream Charter'
p2241
sg15
I700
sg16
g1705
sg17
g1705
sg18
g1697
sg20
g1706
sbag1
(g8
g3
NtRp2242
(dp2243
g11
g1705
sg13
S'LMRomanUnsl10'
p2244
sg15
I400
sg16
g1705
sg17
g1705
sg18
g1698
sg20
g1706
sbasb.